ARM GAS  C:\Users\Ramon\AppData\Local\Temp\cc2qoQyP.s 			page 1


   1              		.syntax unified
   2              		.cpu cortex-m4
   3              		.eabi_attribute 27, 1
   4              		.fpu fpv4-sp-d16
   5              		.eabi_attribute 20, 1
   6              		.eabi_attribute 21, 1
   7              		.eabi_attribute 23, 3
   8              		.eabi_attribute 24, 1
   9              		.eabi_attribute 25, 1
  10              		.eabi_attribute 26, 1
  11              		.eabi_attribute 30, 1
  12              		.eabi_attribute 34, 1
  13              		.eabi_attribute 18, 4
  14              		.thumb
  15              		.syntax unified
  16              		.file	"DETECTOR_ADC.c"
  17              		.text
  18              	.Ltext0:
  19              		.cfi_sections	.debug_frame
  20              		.section	.text.DETECTOR_ADC_InitConfig,"ax",%progbits
  21              		.align	2
  22              		.global	DETECTOR_ADC_InitConfig
  23              		.thumb
  24              		.thumb_func
  25              		.type	DETECTOR_ADC_InitConfig, %function
  26              	DETECTOR_ADC_InitConfig:
  27              	.LFB216:
  28              		.file 1 "Generated_Source\\PSoC6\\DETECTOR_ADC.c"
   1:Generated_Source\PSoC6/DETECTOR_ADC.c **** /***************************************************************************//**
   2:Generated_Source\PSoC6/DETECTOR_ADC.c **** * \file     DETECTOR_ADC.c
   3:Generated_Source\PSoC6/DETECTOR_ADC.c **** * \version  3.10
   4:Generated_Source\PSoC6/DETECTOR_ADC.c **** *
   5:Generated_Source\PSoC6/DETECTOR_ADC.c **** * \brief
   6:Generated_Source\PSoC6/DETECTOR_ADC.c **** * Provides the source code to the API for the DETECTOR_ADC Component.
   7:Generated_Source\PSoC6/DETECTOR_ADC.c **** *
   8:Generated_Source\PSoC6/DETECTOR_ADC.c **** ********************************************************************************
   9:Generated_Source\PSoC6/DETECTOR_ADC.c **** * \copyright
  10:Generated_Source\PSoC6/DETECTOR_ADC.c **** * (c) 2017-2018, Cypress Semiconductor Corporation. All rights reserved.
  11:Generated_Source\PSoC6/DETECTOR_ADC.c **** * This software, including source code, documentation and related
  12:Generated_Source\PSoC6/DETECTOR_ADC.c **** * materials ("Software"), is owned by Cypress Semiconductor
  13:Generated_Source\PSoC6/DETECTOR_ADC.c **** * Corporation ("Cypress") and is protected by and subject to worldwide
  14:Generated_Source\PSoC6/DETECTOR_ADC.c **** * patent protection (United States and foreign), United States copyright
  15:Generated_Source\PSoC6/DETECTOR_ADC.c **** * laws and international treaty provisions. Therefore, you may use this
  16:Generated_Source\PSoC6/DETECTOR_ADC.c **** * Software only as provided in the license agreement accompanying the
  17:Generated_Source\PSoC6/DETECTOR_ADC.c **** * software package from which you obtained this Software ("EULA").
  18:Generated_Source\PSoC6/DETECTOR_ADC.c **** * If no EULA applies, Cypress hereby grants you a personal, nonexclusive,
  19:Generated_Source\PSoC6/DETECTOR_ADC.c **** * non-transferable license to copy, modify, and compile the
  20:Generated_Source\PSoC6/DETECTOR_ADC.c **** * Software source code solely for use in connection with Cypress's
  21:Generated_Source\PSoC6/DETECTOR_ADC.c **** * integrated circuit products. Any reproduction, modification, translation,
  22:Generated_Source\PSoC6/DETECTOR_ADC.c **** * compilation, or representation of this Software except as specified
  23:Generated_Source\PSoC6/DETECTOR_ADC.c **** * above is prohibited without the express written permission of Cypress.
  24:Generated_Source\PSoC6/DETECTOR_ADC.c **** * Disclaimer: THIS SOFTWARE IS PROVIDED AS-IS, WITH NO
  25:Generated_Source\PSoC6/DETECTOR_ADC.c **** * WARRANTY OF ANY KIND, EXPRESS OR IMPLIED, INCLUDING,
  26:Generated_Source\PSoC6/DETECTOR_ADC.c **** * BUT NOT LIMITED TO, NONINFRINGEMENT, IMPLIED
  27:Generated_Source\PSoC6/DETECTOR_ADC.c **** * WARRANTIES OF MERCHANTABILITY AND FITNESS FOR A
  28:Generated_Source\PSoC6/DETECTOR_ADC.c **** * PARTICULAR PURPOSE. Cypress reserves the right to make
  29:Generated_Source\PSoC6/DETECTOR_ADC.c **** * changes to the Software without notice. Cypress does not assume any
ARM GAS  C:\Users\Ramon\AppData\Local\Temp\cc2qoQyP.s 			page 2


  30:Generated_Source\PSoC6/DETECTOR_ADC.c **** * liability arising out of the application or use of the Software or any
  31:Generated_Source\PSoC6/DETECTOR_ADC.c **** * product or circuit described in the Software. Cypress does not
  32:Generated_Source\PSoC6/DETECTOR_ADC.c **** * authorize its products for use in any products where a malfunction or
  33:Generated_Source\PSoC6/DETECTOR_ADC.c **** * failure of the Cypress product may reasonably be expected to result in
  34:Generated_Source\PSoC6/DETECTOR_ADC.c **** * significant property damage, injury or death ("High Risk Product"). By
  35:Generated_Source\PSoC6/DETECTOR_ADC.c **** * including Cypress's product in a High Risk Product, the manufacturer
  36:Generated_Source\PSoC6/DETECTOR_ADC.c **** * of such system or application assumes all risk of such use and in doing
  37:Generated_Source\PSoC6/DETECTOR_ADC.c **** * so agrees to indemnify Cypress against all liability.
  38:Generated_Source\PSoC6/DETECTOR_ADC.c **** *******************************************************************************/
  39:Generated_Source\PSoC6/DETECTOR_ADC.c **** #include "DETECTOR_ADC.h"
  40:Generated_Source\PSoC6/DETECTOR_ADC.c **** #include <sysint/cy_sysint.h>
  41:Generated_Source\PSoC6/DETECTOR_ADC.c **** #include <cyfitter_sysint_cfg.h>
  42:Generated_Source\PSoC6/DETECTOR_ADC.c **** 
  43:Generated_Source\PSoC6/DETECTOR_ADC.c **** uint8_t DETECTOR_ADC_initVar = 0u;
  44:Generated_Source\PSoC6/DETECTOR_ADC.c **** uint8_t DETECTOR_ADC_selected = 0u; /* 0 if no configuration selected. 1 otherwise. */
  45:Generated_Source\PSoC6/DETECTOR_ADC.c **** uint32_t DETECTOR_ADC_currentConfig = 0u; /* Currently active configuration */
  46:Generated_Source\PSoC6/DETECTOR_ADC.c **** 
  47:Generated_Source\PSoC6/DETECTOR_ADC.c **** /*******************************************************************************
  48:Generated_Source\PSoC6/DETECTOR_ADC.c **** * Function Name: DETECTOR_ADC_Start
  49:Generated_Source\PSoC6/DETECTOR_ADC.c **** ****************************************************************************//**
  50:Generated_Source\PSoC6/DETECTOR_ADC.c **** *
  51:Generated_Source\PSoC6/DETECTOR_ADC.c **** * \brief Performs all required initialization for this component and enables the
  52:Generated_Source\PSoC6/DETECTOR_ADC.c **** *  power. The power will be set to the appropriate power based on the clock
  53:Generated_Source\PSoC6/DETECTOR_ADC.c **** *  frequency.
  54:Generated_Source\PSoC6/DETECTOR_ADC.c **** *
  55:Generated_Source\PSoC6/DETECTOR_ADC.c **** * \param None
  56:Generated_Source\PSoC6/DETECTOR_ADC.c **** *
  57:Generated_Source\PSoC6/DETECTOR_ADC.c **** * \return None
  58:Generated_Source\PSoC6/DETECTOR_ADC.c **** *
  59:Generated_Source\PSoC6/DETECTOR_ADC.c **** * \sideeffect None
  60:Generated_Source\PSoC6/DETECTOR_ADC.c **** *
  61:Generated_Source\PSoC6/DETECTOR_ADC.c **** * \globalvars
  62:Generated_Source\PSoC6/DETECTOR_ADC.c **** *  \ref DETECTOR_ADC_initVar (RW)
  63:Generated_Source\PSoC6/DETECTOR_ADC.c **** *
  64:Generated_Source\PSoC6/DETECTOR_ADC.c **** *******************************************************************************/
  65:Generated_Source\PSoC6/DETECTOR_ADC.c **** void DETECTOR_ADC_Start(void)
  66:Generated_Source\PSoC6/DETECTOR_ADC.c **** {
  67:Generated_Source\PSoC6/DETECTOR_ADC.c ****     if (DETECTOR_ADC_INIT_VAR_INIT_FLAG != (DETECTOR_ADC_INIT_VAR_INIT_FLAG & DETECTOR_ADC_initVar)
  68:Generated_Source\PSoC6/DETECTOR_ADC.c ****     {
  69:Generated_Source\PSoC6/DETECTOR_ADC.c ****         DETECTOR_ADC_Init();
  70:Generated_Source\PSoC6/DETECTOR_ADC.c ****         DETECTOR_ADC_initVar |= DETECTOR_ADC_INIT_VAR_INIT_FLAG;
  71:Generated_Source\PSoC6/DETECTOR_ADC.c ****     }
  72:Generated_Source\PSoC6/DETECTOR_ADC.c **** 
  73:Generated_Source\PSoC6/DETECTOR_ADC.c ****     DETECTOR_ADC_Enable();
  74:Generated_Source\PSoC6/DETECTOR_ADC.c **** 
  75:Generated_Source\PSoC6/DETECTOR_ADC.c ****     return;
  76:Generated_Source\PSoC6/DETECTOR_ADC.c **** }
  77:Generated_Source\PSoC6/DETECTOR_ADC.c **** 
  78:Generated_Source\PSoC6/DETECTOR_ADC.c **** /*******************************************************************************
  79:Generated_Source\PSoC6/DETECTOR_ADC.c **** * Function Name: DETECTOR_ADC_StartEx
  80:Generated_Source\PSoC6/DETECTOR_ADC.c **** ****************************************************************************//**
  81:Generated_Source\PSoC6/DETECTOR_ADC.c **** *
  82:Generated_Source\PSoC6/DETECTOR_ADC.c **** * \brief This function starts the DETECTOR_ADC and sets the Interrupt
  83:Generated_Source\PSoC6/DETECTOR_ADC.c **** * Service Routine to the provided address using the
  84:Generated_Source\PSoC6/DETECTOR_ADC.c **** * Cy_SysInt_Init() function. Refer to the Interrupt component
  85:Generated_Source\PSoC6/DETECTOR_ADC.c **** * datasheet for more information on the Cy_SysInt_Init() function.
  86:Generated_Source\PSoC6/DETECTOR_ADC.c **** *
ARM GAS  C:\Users\Ramon\AppData\Local\Temp\cc2qoQyP.s 			page 3


  87:Generated_Source\PSoC6/DETECTOR_ADC.c **** * \param address This is the address of a user defined function for the ISR.
  88:Generated_Source\PSoC6/DETECTOR_ADC.c **** *
  89:Generated_Source\PSoC6/DETECTOR_ADC.c **** * \return None
  90:Generated_Source\PSoC6/DETECTOR_ADC.c **** *
  91:Generated_Source\PSoC6/DETECTOR_ADC.c **** * \sideeffect None
  92:Generated_Source\PSoC6/DETECTOR_ADC.c **** *
  93:Generated_Source\PSoC6/DETECTOR_ADC.c **** *******************************************************************************/
  94:Generated_Source\PSoC6/DETECTOR_ADC.c **** void DETECTOR_ADC_StartEx(cy_israddress userIsr)
  95:Generated_Source\PSoC6/DETECTOR_ADC.c **** {
  96:Generated_Source\PSoC6/DETECTOR_ADC.c ****     DETECTOR_ADC_Start();
  97:Generated_Source\PSoC6/DETECTOR_ADC.c **** 
  98:Generated_Source\PSoC6/DETECTOR_ADC.c ****     /* Interrupt core assignment will be up to the user. Initialize and enable the interrupt*/
  99:Generated_Source\PSoC6/DETECTOR_ADC.c ****     #ifdef DETECTOR_ADC_IRQ__INTC_CORTEXM4_ASSIGNED
 100:Generated_Source\PSoC6/DETECTOR_ADC.c ****     #if (CY_CPU_CORTEX_M4)
 101:Generated_Source\PSoC6/DETECTOR_ADC.c ****         (void)Cy_SysInt_Init(&DETECTOR_ADC_IRQ_cfg, userIsr);
 102:Generated_Source\PSoC6/DETECTOR_ADC.c ****         NVIC_EnableIRQ(DETECTOR_ADC_IRQ_cfg.intrSrc);
 103:Generated_Source\PSoC6/DETECTOR_ADC.c ****     #endif
 104:Generated_Source\PSoC6/DETECTOR_ADC.c ****     #endif
 105:Generated_Source\PSoC6/DETECTOR_ADC.c **** 
 106:Generated_Source\PSoC6/DETECTOR_ADC.c ****     #ifdef DETECTOR_ADC_IRQ__INTC_CORTEXM0P_ASSIGNED
 107:Generated_Source\PSoC6/DETECTOR_ADC.c ****     #if (CY_CPU_CORTEX_M0P)
 108:Generated_Source\PSoC6/DETECTOR_ADC.c ****         (void)Cy_SysInt_Init(&DETECTOR_ADC_IRQ_cfg, userIsr);
 109:Generated_Source\PSoC6/DETECTOR_ADC.c ****         NVIC_EnableIRQ(DETECTOR_ADC_IRQ_cfg.intrSrc);
 110:Generated_Source\PSoC6/DETECTOR_ADC.c ****     #endif
 111:Generated_Source\PSoC6/DETECTOR_ADC.c ****     #endif
 112:Generated_Source\PSoC6/DETECTOR_ADC.c **** 
 113:Generated_Source\PSoC6/DETECTOR_ADC.c **** }
 114:Generated_Source\PSoC6/DETECTOR_ADC.c **** 
 115:Generated_Source\PSoC6/DETECTOR_ADC.c **** /* ****************************************************************************
 116:Generated_Source\PSoC6/DETECTOR_ADC.c **** * Function Name: DETECTOR_ADC_InitConfig
 117:Generated_Source\PSoC6/DETECTOR_ADC.c **** ****************************************************************************//*
 118:Generated_Source\PSoC6/DETECTOR_ADC.c **** *
 119:Generated_Source\PSoC6/DETECTOR_ADC.c **** * \brief Configures all of the registers for a given configuration for scanning.
 120:Generated_Source\PSoC6/DETECTOR_ADC.c **** *
 121:Generated_Source\PSoC6/DETECTOR_ADC.c **** * \param scan Number of scan defined in the DETECTOR_ADC.
 122:Generated_Source\PSoC6/DETECTOR_ADC.c **** *
 123:Generated_Source\PSoC6/DETECTOR_ADC.c **** * \return None
 124:Generated_Source\PSoC6/DETECTOR_ADC.c **** *
 125:Generated_Source\PSoC6/DETECTOR_ADC.c **** * \sideeffect None
 126:Generated_Source\PSoC6/DETECTOR_ADC.c **** *
 127:Generated_Source\PSoC6/DETECTOR_ADC.c **** *******************************************************************************/
 128:Generated_Source\PSoC6/DETECTOR_ADC.c **** void DETECTOR_ADC_InitConfig(const DETECTOR_ADC_CONFIG_STRUCT *config)
 129:Generated_Source\PSoC6/DETECTOR_ADC.c **** {
  29              		.loc 1 129 0
  30              		.cfi_startproc
  31              		@ args = 0, pretend = 0, frame = 0
  32              		@ frame_needed = 0, uses_anonymous_args = 0
  33              	.LVL0:
  34 0000 38B5     		push	{r3, r4, r5, lr}
  35              		.cfi_def_cfa_offset 16
  36              		.cfi_offset 3, -16
  37              		.cfi_offset 4, -12
  38              		.cfi_offset 5, -8
  39              		.cfi_offset 14, -4
  40 0002 0546     		mov	r5, r0
  41              	.LVL1:
 130:Generated_Source\PSoC6/DETECTOR_ADC.c ****     bool deInitRouting = false;
ARM GAS  C:\Users\Ramon\AppData\Local\Temp\cc2qoQyP.s 			page 4


 131:Generated_Source\PSoC6/DETECTOR_ADC.c **** 
 132:Generated_Source\PSoC6/DETECTOR_ADC.c ****     /* If there is an internal SAR clock, set up its divider values. */
 133:Generated_Source\PSoC6/DETECTOR_ADC.c ****     #if (DETECTOR_ADC_CLOCK_INTERNAL)
 134:Generated_Source\PSoC6/DETECTOR_ADC.c ****         DETECTOR_ADC_intSarClock_Disable();
 135:Generated_Source\PSoC6/DETECTOR_ADC.c ****         DETECTOR_ADC_intSarClock_SetDivider(config->clkDivider);
 136:Generated_Source\PSoC6/DETECTOR_ADC.c ****         DETECTOR_ADC_intSarClock_Enable();
 137:Generated_Source\PSoC6/DETECTOR_ADC.c ****     #endif /* DETECTOR_ADC_CLOCK_INTERNAL */
 138:Generated_Source\PSoC6/DETECTOR_ADC.c **** 
 139:Generated_Source\PSoC6/DETECTOR_ADC.c ****     /* Init SAR and MUX registers */
 140:Generated_Source\PSoC6/DETECTOR_ADC.c ****     (void)Cy_SAR_DeInit(DETECTOR_ADC_SAR__HW, deInitRouting);
  42              		.loc 1 140 0
  43 0004 044C     		ldr	r4, .L3
  44 0006 0021     		movs	r1, #0
  45 0008 2046     		mov	r0, r4
  46              	.LVL2:
  47 000a FFF7FEFF 		bl	Cy_SAR_DeInit
  48              	.LVL3:
 141:Generated_Source\PSoC6/DETECTOR_ADC.c ****     (void)Cy_SAR_Init(DETECTOR_ADC_SAR__HW, config->hwConfigStc);
  49              		.loc 1 141 0
  50 000e A968     		ldr	r1, [r5, #8]
  51 0010 2046     		mov	r0, r4
  52 0012 FFF7FEFF 		bl	Cy_SAR_Init
  53              	.LVL4:
  54 0016 38BD     		pop	{r3, r4, r5, pc}
  55              	.LVL5:
  56              	.L4:
  57              		.align	2
  58              	.L3:
  59 0018 00001D41 		.word	1092419584
  60              		.cfi_endproc
  61              	.LFE216:
  62              		.size	DETECTOR_ADC_InitConfig, .-DETECTOR_ADC_InitConfig
  63              		.section	.text.DETECTOR_ADC_StartConvert,"ax",%progbits
  64              		.align	2
  65              		.global	DETECTOR_ADC_StartConvert
  66              		.thumb
  67              		.thumb_func
  68              		.type	DETECTOR_ADC_StartConvert, %function
  69              	DETECTOR_ADC_StartConvert:
  70              	.LFB218:
 142:Generated_Source\PSoC6/DETECTOR_ADC.c **** 
 143:Generated_Source\PSoC6/DETECTOR_ADC.c ****     /* Connect Vminus to VSSA when even one channel is single-ended or multiple channels configured
 144:Generated_Source\PSoC6/DETECTOR_ADC.c ****     if(1uL == DETECTOR_ADC_MUX_SWITCH0_INIT)
 145:Generated_Source\PSoC6/DETECTOR_ADC.c ****     {
 146:Generated_Source\PSoC6/DETECTOR_ADC.c ****         Cy_SAR_SetVssaVminusSwitch(DETECTOR_ADC_SAR__HW, CY_SAR_SWITCH_CLOSE);
 147:Generated_Source\PSoC6/DETECTOR_ADC.c **** 
 148:Generated_Source\PSoC6/DETECTOR_ADC.c ****         /* Set MUX_HW_CTRL_VSSA in MUX_SWITCH_HW_CTRL when multiple channels enabled */
 149:Generated_Source\PSoC6/DETECTOR_ADC.c ****         if(1uL < config->numChannels)
 150:Generated_Source\PSoC6/DETECTOR_ADC.c ****         {
 151:Generated_Source\PSoC6/DETECTOR_ADC.c ****             Cy_SAR_SetVssaSarSeqCtrl(DETECTOR_ADC_SAR__HW, CY_SAR_SWITCH_SEQ_CTRL_ENABLE);
 152:Generated_Source\PSoC6/DETECTOR_ADC.c ****         }
 153:Generated_Source\PSoC6/DETECTOR_ADC.c ****     }
 154:Generated_Source\PSoC6/DETECTOR_ADC.c **** 
 155:Generated_Source\PSoC6/DETECTOR_ADC.c ****     return;
 156:Generated_Source\PSoC6/DETECTOR_ADC.c **** }
 157:Generated_Source\PSoC6/DETECTOR_ADC.c **** 
 158:Generated_Source\PSoC6/DETECTOR_ADC.c **** /* ****************************************************************************
ARM GAS  C:\Users\Ramon\AppData\Local\Temp\cc2qoQyP.s 			page 5


 159:Generated_Source\PSoC6/DETECTOR_ADC.c **** * Function Name: DETECTOR_ADC_SelectConfig
 160:Generated_Source\PSoC6/DETECTOR_ADC.c **** ****************************************************************************//*
 161:Generated_Source\PSoC6/DETECTOR_ADC.c **** *
 162:Generated_Source\PSoC6/DETECTOR_ADC.c **** * \brief Selects the predefined configuration for scanning.
 163:Generated_Source\PSoC6/DETECTOR_ADC.c **** *
 164:Generated_Source\PSoC6/DETECTOR_ADC.c **** * \param config Number of configuration in the DETECTOR_ADC.
 165:Generated_Source\PSoC6/DETECTOR_ADC.c **** *
 166:Generated_Source\PSoC6/DETECTOR_ADC.c **** * \param restart Set to 1u if the DETECTOR_ADC should be  restarted after
 167:Generated_Source\PSoC6/DETECTOR_ADC.c **** * selecting the configuration.
 168:Generated_Source\PSoC6/DETECTOR_ADC.c **** *
 169:Generated_Source\PSoC6/DETECTOR_ADC.c **** *******************************************************************************/
 170:Generated_Source\PSoC6/DETECTOR_ADC.c **** void DETECTOR_ADC_SelectConfig(uint32_t config, uint32_t restart)
 171:Generated_Source\PSoC6/DETECTOR_ADC.c **** {
 172:Generated_Source\PSoC6/DETECTOR_ADC.c ****     /* Check whether the configuration number is valid or not */
 173:Generated_Source\PSoC6/DETECTOR_ADC.c ****     if(DETECTOR_ADC_TOTAL_CONFIGS > config)
 174:Generated_Source\PSoC6/DETECTOR_ADC.c ****     {
 175:Generated_Source\PSoC6/DETECTOR_ADC.c ****         /* Stop the ADC before changing configurations */
 176:Generated_Source\PSoC6/DETECTOR_ADC.c ****         DETECTOR_ADC_Stop();
 177:Generated_Source\PSoC6/DETECTOR_ADC.c ****         DETECTOR_ADC_selected = 1u;
 178:Generated_Source\PSoC6/DETECTOR_ADC.c **** 
 179:Generated_Source\PSoC6/DETECTOR_ADC.c ****         if(0u == DETECTOR_ADC_initVar)
 180:Generated_Source\PSoC6/DETECTOR_ADC.c ****         {
 181:Generated_Source\PSoC6/DETECTOR_ADC.c ****             DETECTOR_ADC_Init();
 182:Generated_Source\PSoC6/DETECTOR_ADC.c ****             DETECTOR_ADC_initVar |= DETECTOR_ADC_INIT_VAR_INIT_FLAG;
 183:Generated_Source\PSoC6/DETECTOR_ADC.c ****         }
 184:Generated_Source\PSoC6/DETECTOR_ADC.c ****         #if (DETECTOR_ADC_VREF_ROUTED)
 185:Generated_Source\PSoC6/DETECTOR_ADC.c ****             DETECTOR_ADC_vrefAMux_DisconnectAll();
 186:Generated_Source\PSoC6/DETECTOR_ADC.c ****         #endif
 187:Generated_Source\PSoC6/DETECTOR_ADC.c **** 
 188:Generated_Source\PSoC6/DETECTOR_ADC.c ****         DETECTOR_ADC_InitConfig(&DETECTOR_ADC_allConfigs[config]);
 189:Generated_Source\PSoC6/DETECTOR_ADC.c **** 
 190:Generated_Source\PSoC6/DETECTOR_ADC.c ****         #if (DETECTOR_ADC_VREF_ROUTED)
 191:Generated_Source\PSoC6/DETECTOR_ADC.c ****             DETECTOR_ADC_vrefAMux_Select((uint8)config);
 192:Generated_Source\PSoC6/DETECTOR_ADC.c ****         #endif
 193:Generated_Source\PSoC6/DETECTOR_ADC.c **** 
 194:Generated_Source\PSoC6/DETECTOR_ADC.c ****         DETECTOR_ADC_currentConfig = config;
 195:Generated_Source\PSoC6/DETECTOR_ADC.c **** 
 196:Generated_Source\PSoC6/DETECTOR_ADC.c ****         if(1u == restart)
 197:Generated_Source\PSoC6/DETECTOR_ADC.c ****         {
 198:Generated_Source\PSoC6/DETECTOR_ADC.c ****             /* Restart the ADC */
 199:Generated_Source\PSoC6/DETECTOR_ADC.c ****             DETECTOR_ADC_Start();
 200:Generated_Source\PSoC6/DETECTOR_ADC.c **** 
 201:Generated_Source\PSoC6/DETECTOR_ADC.c ****             /* Restart the scan */
 202:Generated_Source\PSoC6/DETECTOR_ADC.c ****             DETECTOR_ADC_StartConvert();
 203:Generated_Source\PSoC6/DETECTOR_ADC.c ****         }
 204:Generated_Source\PSoC6/DETECTOR_ADC.c ****     }
 205:Generated_Source\PSoC6/DETECTOR_ADC.c ****     return;
 206:Generated_Source\PSoC6/DETECTOR_ADC.c **** }
 207:Generated_Source\PSoC6/DETECTOR_ADC.c **** 
 208:Generated_Source\PSoC6/DETECTOR_ADC.c **** /*******************************************************************************
 209:Generated_Source\PSoC6/DETECTOR_ADC.c **** * Function Name: DETECTOR_ADC_StartConvert
 210:Generated_Source\PSoC6/DETECTOR_ADC.c **** ****************************************************************************//**
 211:Generated_Source\PSoC6/DETECTOR_ADC.c **** *
 212:Generated_Source\PSoC6/DETECTOR_ADC.c **** * \brief In continuous mode, this API starts the conversion process and it runs
 213:Generated_Source\PSoC6/DETECTOR_ADC.c **** * continuously.
 214:Generated_Source\PSoC6/DETECTOR_ADC.c **** 
 215:Generated_Source\PSoC6/DETECTOR_ADC.c **** * In Single Shot mode, the function triggers a single scan and
ARM GAS  C:\Users\Ramon\AppData\Local\Temp\cc2qoQyP.s 			page 6


 216:Generated_Source\PSoC6/DETECTOR_ADC.c **** * every scan requires a call of this function. The mode is set with the
 217:Generated_Source\PSoC6/DETECTOR_ADC.c **** * Sample Mode parameter in the customizer. The customizer setting can be
 218:Generated_Source\PSoC6/DETECTOR_ADC.c **** * overridden at run time with the DETECTOR_ADC_SetConvertMode() function.
 219:Generated_Source\PSoC6/DETECTOR_ADC.c **** *
 220:Generated_Source\PSoC6/DETECTOR_ADC.c **** * \param None
 221:Generated_Source\PSoC6/DETECTOR_ADC.c **** *
 222:Generated_Source\PSoC6/DETECTOR_ADC.c **** * \return None
 223:Generated_Source\PSoC6/DETECTOR_ADC.c **** *
 224:Generated_Source\PSoC6/DETECTOR_ADC.c **** * \sideeffect None
 225:Generated_Source\PSoC6/DETECTOR_ADC.c **** *
 226:Generated_Source\PSoC6/DETECTOR_ADC.c **** *******************************************************************************/
 227:Generated_Source\PSoC6/DETECTOR_ADC.c **** void DETECTOR_ADC_StartConvert(void)
 228:Generated_Source\PSoC6/DETECTOR_ADC.c **** {
  71              		.loc 1 228 0
  72              		.cfi_startproc
  73              		@ args = 0, pretend = 0, frame = 0
  74              		@ frame_needed = 0, uses_anonymous_args = 0
  75 0000 08B5     		push	{r3, lr}
  76              		.cfi_def_cfa_offset 8
  77              		.cfi_offset 3, -8
  78              		.cfi_offset 14, -4
 229:Generated_Source\PSoC6/DETECTOR_ADC.c ****     if (SAR_SAMPLE_CTRL_DSI_TRIGGER_LEVEL_Msk == (DETECTOR_ADC_SAR__HW->SAMPLE_CTRL & SAR_SAMPLE_CT
  79              		.loc 1 229 0
  80 0002 074B     		ldr	r3, .L9
  81 0004 5B68     		ldr	r3, [r3, #4]
  82 0006 13F4802F 		tst	r3, #262144
  83 000a 04D0     		beq	.L6
 230:Generated_Source\PSoC6/DETECTOR_ADC.c ****     {
 231:Generated_Source\PSoC6/DETECTOR_ADC.c ****         Cy_SAR_StartConvert(DETECTOR_ADC_SAR__HW, CY_SAR_START_CONVERT_CONTINUOUS);
  84              		.loc 1 231 0
  85 000c 0121     		movs	r1, #1
  86 000e 0448     		ldr	r0, .L9
  87 0010 FFF7FEFF 		bl	Cy_SAR_StartConvert
  88              	.LVL6:
  89 0014 08BD     		pop	{r3, pc}
  90              	.L6:
 232:Generated_Source\PSoC6/DETECTOR_ADC.c ****     }
 233:Generated_Source\PSoC6/DETECTOR_ADC.c ****     else
 234:Generated_Source\PSoC6/DETECTOR_ADC.c ****     {
 235:Generated_Source\PSoC6/DETECTOR_ADC.c ****         Cy_SAR_StartConvert(DETECTOR_ADC_SAR__HW, CY_SAR_START_CONVERT_SINGLE_SHOT);
  91              		.loc 1 235 0
  92 0016 0021     		movs	r1, #0
  93 0018 0148     		ldr	r0, .L9
  94 001a FFF7FEFF 		bl	Cy_SAR_StartConvert
  95              	.LVL7:
  96 001e 08BD     		pop	{r3, pc}
  97              	.L10:
  98              		.align	2
  99              	.L9:
 100 0020 00001D41 		.word	1092419584
 101              		.cfi_endproc
 102              	.LFE218:
 103              		.size	DETECTOR_ADC_StartConvert, .-DETECTOR_ADC_StartConvert
 104              		.section	.text.DETECTOR_ADC_SetConvertMode,"ax",%progbits
 105              		.align	2
 106              		.global	DETECTOR_ADC_SetConvertMode
 107              		.thumb
ARM GAS  C:\Users\Ramon\AppData\Local\Temp\cc2qoQyP.s 			page 7


 108              		.thumb_func
 109              		.type	DETECTOR_ADC_SetConvertMode, %function
 110              	DETECTOR_ADC_SetConvertMode:
 111              	.LFB219:
 236:Generated_Source\PSoC6/DETECTOR_ADC.c ****     }
 237:Generated_Source\PSoC6/DETECTOR_ADC.c **** }
 238:Generated_Source\PSoC6/DETECTOR_ADC.c **** 
 239:Generated_Source\PSoC6/DETECTOR_ADC.c **** /*******************************************************************************
 240:Generated_Source\PSoC6/DETECTOR_ADC.c **** * Function Name: DETECTOR_ADC_SetConvertMode
 241:Generated_Source\PSoC6/DETECTOR_ADC.c **** ****************************************************************************//**
 242:Generated_Source\PSoC6/DETECTOR_ADC.c **** *
 243:Generated_Source\PSoC6/DETECTOR_ADC.c **** * \brief Sets the conversion mode to either Single-Shot or continuous. This
 244:Generated_Source\PSoC6/DETECTOR_ADC.c **** * function overrides the settings applied in the customizer. Changing
 245:Generated_Source\PSoC6/DETECTOR_ADC.c **** * configurations will restore the values set in the customizer.
 246:Generated_Source\PSoC6/DETECTOR_ADC.c **** *
 247:Generated_Source\PSoC6/DETECTOR_ADC.c **** * \param mode Sets the conversion mode.
 248:Generated_Source\PSoC6/DETECTOR_ADC.c **** *
 249:Generated_Source\PSoC6/DETECTOR_ADC.c **** * \return None
 250:Generated_Source\PSoC6/DETECTOR_ADC.c **** *
 251:Generated_Source\PSoC6/DETECTOR_ADC.c **** * \sideeffect None
 252:Generated_Source\PSoC6/DETECTOR_ADC.c **** *
 253:Generated_Source\PSoC6/DETECTOR_ADC.c **** *******************************************************************************/
 254:Generated_Source\PSoC6/DETECTOR_ADC.c **** void DETECTOR_ADC_SetConvertMode(cy_en_sar_start_convert_sel_t mode)
 255:Generated_Source\PSoC6/DETECTOR_ADC.c **** {
 112              		.loc 1 255 0
 113              		.cfi_startproc
 114              		@ args = 0, pretend = 0, frame = 0
 115              		@ frame_needed = 0, uses_anonymous_args = 0
 116              		@ link register save eliminated.
 117              	.LVL8:
 256:Generated_Source\PSoC6/DETECTOR_ADC.c ****     switch(mode)
 118              		.loc 1 256 0
 119 0000 0128     		cmp	r0, #1
 120 0002 05D1     		bne	.L15
 257:Generated_Source\PSoC6/DETECTOR_ADC.c ****     {
 258:Generated_Source\PSoC6/DETECTOR_ADC.c ****     case CY_SAR_START_CONVERT_CONTINUOUS:
 259:Generated_Source\PSoC6/DETECTOR_ADC.c ****         DETECTOR_ADC_SAR__HW->SAMPLE_CTRL |= SAR_SAMPLE_CTRL_DSI_TRIGGER_LEVEL_Msk;
 121              		.loc 1 259 0
 122 0004 054A     		ldr	r2, .L16
 123 0006 5368     		ldr	r3, [r2, #4]
 124 0008 43F48023 		orr	r3, r3, #262144
 125 000c 5360     		str	r3, [r2, #4]
 260:Generated_Source\PSoC6/DETECTOR_ADC.c ****         break;
 126              		.loc 1 260 0
 127 000e 7047     		bx	lr
 128              	.L15:
 261:Generated_Source\PSoC6/DETECTOR_ADC.c ****     case CY_SAR_START_CONVERT_SINGLE_SHOT:
 262:Generated_Source\PSoC6/DETECTOR_ADC.c ****     default:
 263:Generated_Source\PSoC6/DETECTOR_ADC.c ****         DETECTOR_ADC_SAR__HW->SAMPLE_CTRL &= ~SAR_SAMPLE_CTRL_DSI_TRIGGER_LEVEL_Msk;
 129              		.loc 1 263 0
 130 0010 024A     		ldr	r2, .L16
 131 0012 5368     		ldr	r3, [r2, #4]
 132 0014 23F48023 		bic	r3, r3, #262144
 133 0018 5360     		str	r3, [r2, #4]
 134 001a 7047     		bx	lr
 135              	.L17:
 136              		.align	2
ARM GAS  C:\Users\Ramon\AppData\Local\Temp\cc2qoQyP.s 			page 8


 137              	.L16:
 138 001c 00001D41 		.word	1092419584
 139              		.cfi_endproc
 140              	.LFE219:
 141              		.size	DETECTOR_ADC_SetConvertMode, .-DETECTOR_ADC_SetConvertMode
 142              		.section	.text.DETECTOR_ADC_IRQ_Enable,"ax",%progbits
 143              		.align	2
 144              		.global	DETECTOR_ADC_IRQ_Enable
 145              		.thumb
 146              		.thumb_func
 147              		.type	DETECTOR_ADC_IRQ_Enable, %function
 148              	DETECTOR_ADC_IRQ_Enable:
 149              	.LFB220:
 264:Generated_Source\PSoC6/DETECTOR_ADC.c ****         break;
 265:Generated_Source\PSoC6/DETECTOR_ADC.c ****     }
 266:Generated_Source\PSoC6/DETECTOR_ADC.c **** }
 267:Generated_Source\PSoC6/DETECTOR_ADC.c **** 
 268:Generated_Source\PSoC6/DETECTOR_ADC.c **** /* ****************************************************************************
 269:Generated_Source\PSoC6/DETECTOR_ADC.c **** * Function Name: DETECTOR_ADC_IRQ_Enable
 270:Generated_Source\PSoC6/DETECTOR_ADC.c **** ****************************************************************************//*
 271:Generated_Source\PSoC6/DETECTOR_ADC.c **** *
 272:Generated_Source\PSoC6/DETECTOR_ADC.c **** * \brief Enables interrupts to occur at the end of a conversion. Global
 273:Generated_Source\PSoC6/DETECTOR_ADC.c **** * interrupts must also be enabled for the DETECTOR_ADC interrupts to occur.
 274:Generated_Source\PSoC6/DETECTOR_ADC.c **** *
 275:Generated_Source\PSoC6/DETECTOR_ADC.c **** * \param None
 276:Generated_Source\PSoC6/DETECTOR_ADC.c **** *
 277:Generated_Source\PSoC6/DETECTOR_ADC.c **** * \return None
 278:Generated_Source\PSoC6/DETECTOR_ADC.c **** *
 279:Generated_Source\PSoC6/DETECTOR_ADC.c **** * \sideeffect None
 280:Generated_Source\PSoC6/DETECTOR_ADC.c **** *
 281:Generated_Source\PSoC6/DETECTOR_ADC.c **** *******************************************************************************/
 282:Generated_Source\PSoC6/DETECTOR_ADC.c **** void DETECTOR_ADC_IRQ_Enable(void){
 150              		.loc 1 282 0
 151              		.cfi_startproc
 152              		@ args = 0, pretend = 0, frame = 0
 153              		@ frame_needed = 0, uses_anonymous_args = 0
 154              		@ link register save eliminated.
 283:Generated_Source\PSoC6/DETECTOR_ADC.c ****     /* Interrupt core assignment will be up to the user. */
 284:Generated_Source\PSoC6/DETECTOR_ADC.c ****     #ifdef DETECTOR_ADC_IRQ__INTC_CORTEXM4_ASSIGNED
 285:Generated_Source\PSoC6/DETECTOR_ADC.c ****     #if (CY_CPU_CORTEX_M4)
 286:Generated_Source\PSoC6/DETECTOR_ADC.c ****         NVIC_EnableIRQ(DETECTOR_ADC_IRQ_cfg.intrSrc);
 155              		.loc 1 286 0
 156 0000 074B     		ldr	r3, .L20
 157 0002 B3F90030 		ldrsh	r3, [r3]
 158              	.LVL9:
 159              	.LBB28:
 160              	.LBB29:
 161              		.file 2 ".\\Core\\Include/core_cm4.h"
   1:.\Core\Include/core_cm4.h **** /**************************************************************************//**
   2:.\Core\Include/core_cm4.h ****  * @file     core_cm4.h
   3:.\Core\Include/core_cm4.h ****  * @brief    CMSIS Cortex-M4 Core Peripheral Access Layer Header File
   4:.\Core\Include/core_cm4.h ****  * @version  V5.1.1
   5:.\Core\Include/core_cm4.h ****  * @date     27. March 2020
   6:.\Core\Include/core_cm4.h ****  ******************************************************************************/
   7:.\Core\Include/core_cm4.h **** /*
   8:.\Core\Include/core_cm4.h ****  * Copyright (c) 2009-2020 Arm Limited. All rights reserved.
   9:.\Core\Include/core_cm4.h ****  *
ARM GAS  C:\Users\Ramon\AppData\Local\Temp\cc2qoQyP.s 			page 9


  10:.\Core\Include/core_cm4.h ****  * SPDX-License-Identifier: Apache-2.0
  11:.\Core\Include/core_cm4.h ****  *
  12:.\Core\Include/core_cm4.h ****  * Licensed under the Apache License, Version 2.0 (the License); you may
  13:.\Core\Include/core_cm4.h ****  * not use this file except in compliance with the License.
  14:.\Core\Include/core_cm4.h ****  * You may obtain a copy of the License at
  15:.\Core\Include/core_cm4.h ****  *
  16:.\Core\Include/core_cm4.h ****  * www.apache.org/licenses/LICENSE-2.0
  17:.\Core\Include/core_cm4.h ****  *
  18:.\Core\Include/core_cm4.h ****  * Unless required by applicable law or agreed to in writing, software
  19:.\Core\Include/core_cm4.h ****  * distributed under the License is distributed on an AS IS BASIS, WITHOUT
  20:.\Core\Include/core_cm4.h ****  * WARRANTIES OR CONDITIONS OF ANY KIND, either express or implied.
  21:.\Core\Include/core_cm4.h ****  * See the License for the specific language governing permissions and
  22:.\Core\Include/core_cm4.h ****  * limitations under the License.
  23:.\Core\Include/core_cm4.h ****  */
  24:.\Core\Include/core_cm4.h **** 
  25:.\Core\Include/core_cm4.h **** #if   defined ( __ICCARM__ )
  26:.\Core\Include/core_cm4.h ****   #pragma system_include         /* treat file as system include file for MISRA check */
  27:.\Core\Include/core_cm4.h **** #elif defined (__clang__)
  28:.\Core\Include/core_cm4.h ****   #pragma clang system_header   /* treat file as system include file */
  29:.\Core\Include/core_cm4.h **** #endif
  30:.\Core\Include/core_cm4.h **** 
  31:.\Core\Include/core_cm4.h **** #ifndef __CORE_CM4_H_GENERIC
  32:.\Core\Include/core_cm4.h **** #define __CORE_CM4_H_GENERIC
  33:.\Core\Include/core_cm4.h **** 
  34:.\Core\Include/core_cm4.h **** #include <stdint.h>
  35:.\Core\Include/core_cm4.h **** 
  36:.\Core\Include/core_cm4.h **** #ifdef __cplusplus
  37:.\Core\Include/core_cm4.h ****  extern "C" {
  38:.\Core\Include/core_cm4.h **** #endif
  39:.\Core\Include/core_cm4.h **** 
  40:.\Core\Include/core_cm4.h **** /**
  41:.\Core\Include/core_cm4.h ****   \page CMSIS_MISRA_Exceptions  MISRA-C:2004 Compliance Exceptions
  42:.\Core\Include/core_cm4.h ****   CMSIS violates the following MISRA-C:2004 rules:
  43:.\Core\Include/core_cm4.h **** 
  44:.\Core\Include/core_cm4.h ****    \li Required Rule 8.5, object/function definition in header file.<br>
  45:.\Core\Include/core_cm4.h ****      Function definitions in header files are used to allow 'inlining'.
  46:.\Core\Include/core_cm4.h **** 
  47:.\Core\Include/core_cm4.h ****    \li Required Rule 18.4, declaration of union type or object of union type: '{...}'.<br>
  48:.\Core\Include/core_cm4.h ****      Unions are used for effective representation of core registers.
  49:.\Core\Include/core_cm4.h **** 
  50:.\Core\Include/core_cm4.h ****    \li Advisory Rule 19.7, Function-like macro defined.<br>
  51:.\Core\Include/core_cm4.h ****      Function-like macros are used to allow more efficient code.
  52:.\Core\Include/core_cm4.h ****  */
  53:.\Core\Include/core_cm4.h **** 
  54:.\Core\Include/core_cm4.h **** 
  55:.\Core\Include/core_cm4.h **** /*******************************************************************************
  56:.\Core\Include/core_cm4.h ****  *                 CMSIS definitions
  57:.\Core\Include/core_cm4.h ****  ******************************************************************************/
  58:.\Core\Include/core_cm4.h **** /**
  59:.\Core\Include/core_cm4.h ****   \ingroup Cortex_M4
  60:.\Core\Include/core_cm4.h ****   @{
  61:.\Core\Include/core_cm4.h ****  */
  62:.\Core\Include/core_cm4.h **** 
  63:.\Core\Include/core_cm4.h **** #include "cmsis_version.h"
  64:.\Core\Include/core_cm4.h **** 
  65:.\Core\Include/core_cm4.h **** /* CMSIS CM4 definitions */
  66:.\Core\Include/core_cm4.h **** #define __CM4_CMSIS_VERSION_MAIN  (__CM_CMSIS_VERSION_MAIN)              /*!< \deprecated [31:16] C
ARM GAS  C:\Users\Ramon\AppData\Local\Temp\cc2qoQyP.s 			page 10


  67:.\Core\Include/core_cm4.h **** #define __CM4_CMSIS_VERSION_SUB   (__CM_CMSIS_VERSION_SUB)               /*!< \deprecated [15:0]  C
  68:.\Core\Include/core_cm4.h **** #define __CM4_CMSIS_VERSION       ((__CM4_CMSIS_VERSION_MAIN << 16U) | \
  69:.\Core\Include/core_cm4.h ****                                     __CM4_CMSIS_VERSION_SUB           )  /*!< \deprecated CMSIS HAL
  70:.\Core\Include/core_cm4.h **** 
  71:.\Core\Include/core_cm4.h **** #define __CORTEX_M                (4U)                                   /*!< Cortex-M Core */
  72:.\Core\Include/core_cm4.h **** 
  73:.\Core\Include/core_cm4.h **** /** __FPU_USED indicates whether an FPU is used or not.
  74:.\Core\Include/core_cm4.h ****     For this, __FPU_PRESENT has to be checked prior to making use of FPU specific registers and fun
  75:.\Core\Include/core_cm4.h **** */
  76:.\Core\Include/core_cm4.h **** #if defined ( __CC_ARM )
  77:.\Core\Include/core_cm4.h ****   #if defined __TARGET_FPU_VFP
  78:.\Core\Include/core_cm4.h ****     #if defined (__FPU_PRESENT) && (__FPU_PRESENT == 1U)
  79:.\Core\Include/core_cm4.h ****       #define __FPU_USED       1U
  80:.\Core\Include/core_cm4.h ****     #else
  81:.\Core\Include/core_cm4.h ****       #error "Compiler generates FPU instructions for a device without an FPU (check __FPU_PRESENT)
  82:.\Core\Include/core_cm4.h ****       #define __FPU_USED       0U
  83:.\Core\Include/core_cm4.h ****     #endif
  84:.\Core\Include/core_cm4.h ****   #else
  85:.\Core\Include/core_cm4.h ****     #define __FPU_USED         0U
  86:.\Core\Include/core_cm4.h ****   #endif
  87:.\Core\Include/core_cm4.h **** 
  88:.\Core\Include/core_cm4.h **** #elif defined (__ARMCC_VERSION) && (__ARMCC_VERSION >= 6010050)
  89:.\Core\Include/core_cm4.h ****   #if defined __ARM_FP
  90:.\Core\Include/core_cm4.h ****     #if defined (__FPU_PRESENT) && (__FPU_PRESENT == 1U)
  91:.\Core\Include/core_cm4.h ****       #define __FPU_USED       1U
  92:.\Core\Include/core_cm4.h ****     #else
  93:.\Core\Include/core_cm4.h ****       #warning "Compiler generates FPU instructions for a device without an FPU (check __FPU_PRESEN
  94:.\Core\Include/core_cm4.h ****       #define __FPU_USED       0U
  95:.\Core\Include/core_cm4.h ****     #endif
  96:.\Core\Include/core_cm4.h ****   #else
  97:.\Core\Include/core_cm4.h ****     #define __FPU_USED         0U
  98:.\Core\Include/core_cm4.h ****   #endif
  99:.\Core\Include/core_cm4.h **** 
 100:.\Core\Include/core_cm4.h **** #elif defined ( __GNUC__ )
 101:.\Core\Include/core_cm4.h ****   #if defined (__VFP_FP__) && !defined(__SOFTFP__)
 102:.\Core\Include/core_cm4.h ****     #if defined (__FPU_PRESENT) && (__FPU_PRESENT == 1U)
 103:.\Core\Include/core_cm4.h ****       #define __FPU_USED       1U
 104:.\Core\Include/core_cm4.h ****     #else
 105:.\Core\Include/core_cm4.h ****       #error "Compiler generates FPU instructions for a device without an FPU (check __FPU_PRESENT)
 106:.\Core\Include/core_cm4.h ****       #define __FPU_USED       0U
 107:.\Core\Include/core_cm4.h ****     #endif
 108:.\Core\Include/core_cm4.h ****   #else
 109:.\Core\Include/core_cm4.h ****     #define __FPU_USED         0U
 110:.\Core\Include/core_cm4.h ****   #endif
 111:.\Core\Include/core_cm4.h **** 
 112:.\Core\Include/core_cm4.h **** #elif defined ( __ICCARM__ )
 113:.\Core\Include/core_cm4.h ****   #if defined __ARMVFP__
 114:.\Core\Include/core_cm4.h ****     #if defined (__FPU_PRESENT) && (__FPU_PRESENT == 1U)
 115:.\Core\Include/core_cm4.h ****       #define __FPU_USED       1U
 116:.\Core\Include/core_cm4.h ****     #else
 117:.\Core\Include/core_cm4.h ****       #error "Compiler generates FPU instructions for a device without an FPU (check __FPU_PRESENT)
 118:.\Core\Include/core_cm4.h ****       #define __FPU_USED       0U
 119:.\Core\Include/core_cm4.h ****     #endif
 120:.\Core\Include/core_cm4.h ****   #else
 121:.\Core\Include/core_cm4.h ****     #define __FPU_USED         0U
 122:.\Core\Include/core_cm4.h ****   #endif
 123:.\Core\Include/core_cm4.h **** 
ARM GAS  C:\Users\Ramon\AppData\Local\Temp\cc2qoQyP.s 			page 11


 124:.\Core\Include/core_cm4.h **** #elif defined ( __TI_ARM__ )
 125:.\Core\Include/core_cm4.h ****   #if defined __TI_VFP_SUPPORT__
 126:.\Core\Include/core_cm4.h ****     #if defined (__FPU_PRESENT) && (__FPU_PRESENT == 1U)
 127:.\Core\Include/core_cm4.h ****       #define __FPU_USED       1U
 128:.\Core\Include/core_cm4.h ****     #else
 129:.\Core\Include/core_cm4.h ****       #error "Compiler generates FPU instructions for a device without an FPU (check __FPU_PRESENT)
 130:.\Core\Include/core_cm4.h ****       #define __FPU_USED       0U
 131:.\Core\Include/core_cm4.h ****     #endif
 132:.\Core\Include/core_cm4.h ****   #else
 133:.\Core\Include/core_cm4.h ****     #define __FPU_USED         0U
 134:.\Core\Include/core_cm4.h ****   #endif
 135:.\Core\Include/core_cm4.h **** 
 136:.\Core\Include/core_cm4.h **** #elif defined ( __TASKING__ )
 137:.\Core\Include/core_cm4.h ****   #if defined __FPU_VFP__
 138:.\Core\Include/core_cm4.h ****     #if defined (__FPU_PRESENT) && (__FPU_PRESENT == 1U)
 139:.\Core\Include/core_cm4.h ****       #define __FPU_USED       1U
 140:.\Core\Include/core_cm4.h ****     #else
 141:.\Core\Include/core_cm4.h ****       #error "Compiler generates FPU instructions for a device without an FPU (check __FPU_PRESENT)
 142:.\Core\Include/core_cm4.h ****       #define __FPU_USED       0U
 143:.\Core\Include/core_cm4.h ****     #endif
 144:.\Core\Include/core_cm4.h ****   #else
 145:.\Core\Include/core_cm4.h ****     #define __FPU_USED         0U
 146:.\Core\Include/core_cm4.h ****   #endif
 147:.\Core\Include/core_cm4.h **** 
 148:.\Core\Include/core_cm4.h **** #elif defined ( __CSMC__ )
 149:.\Core\Include/core_cm4.h ****   #if ( __CSMC__ & 0x400U)
 150:.\Core\Include/core_cm4.h ****     #if defined (__FPU_PRESENT) && (__FPU_PRESENT == 1U)
 151:.\Core\Include/core_cm4.h ****       #define __FPU_USED       1U
 152:.\Core\Include/core_cm4.h ****     #else
 153:.\Core\Include/core_cm4.h ****       #error "Compiler generates FPU instructions for a device without an FPU (check __FPU_PRESENT)
 154:.\Core\Include/core_cm4.h ****       #define __FPU_USED       0U
 155:.\Core\Include/core_cm4.h ****     #endif
 156:.\Core\Include/core_cm4.h ****   #else
 157:.\Core\Include/core_cm4.h ****     #define __FPU_USED         0U
 158:.\Core\Include/core_cm4.h ****   #endif
 159:.\Core\Include/core_cm4.h **** 
 160:.\Core\Include/core_cm4.h **** #endif
 161:.\Core\Include/core_cm4.h **** 
 162:.\Core\Include/core_cm4.h **** #include "cmsis_compiler.h"               /* CMSIS compiler specific defines */
 163:.\Core\Include/core_cm4.h **** 
 164:.\Core\Include/core_cm4.h **** 
 165:.\Core\Include/core_cm4.h **** #ifdef __cplusplus
 166:.\Core\Include/core_cm4.h **** }
 167:.\Core\Include/core_cm4.h **** #endif
 168:.\Core\Include/core_cm4.h **** 
 169:.\Core\Include/core_cm4.h **** #endif /* __CORE_CM4_H_GENERIC */
 170:.\Core\Include/core_cm4.h **** 
 171:.\Core\Include/core_cm4.h **** #ifndef __CMSIS_GENERIC
 172:.\Core\Include/core_cm4.h **** 
 173:.\Core\Include/core_cm4.h **** #ifndef __CORE_CM4_H_DEPENDANT
 174:.\Core\Include/core_cm4.h **** #define __CORE_CM4_H_DEPENDANT
 175:.\Core\Include/core_cm4.h **** 
 176:.\Core\Include/core_cm4.h **** #ifdef __cplusplus
 177:.\Core\Include/core_cm4.h ****  extern "C" {
 178:.\Core\Include/core_cm4.h **** #endif
 179:.\Core\Include/core_cm4.h **** 
 180:.\Core\Include/core_cm4.h **** /* check device defines and use defaults */
ARM GAS  C:\Users\Ramon\AppData\Local\Temp\cc2qoQyP.s 			page 12


 181:.\Core\Include/core_cm4.h **** #if defined __CHECK_DEVICE_DEFINES
 182:.\Core\Include/core_cm4.h ****   #ifndef __CM4_REV
 183:.\Core\Include/core_cm4.h ****     #define __CM4_REV               0x0000U
 184:.\Core\Include/core_cm4.h ****     #warning "__CM4_REV not defined in device header file; using default!"
 185:.\Core\Include/core_cm4.h ****   #endif
 186:.\Core\Include/core_cm4.h **** 
 187:.\Core\Include/core_cm4.h ****   #ifndef __FPU_PRESENT
 188:.\Core\Include/core_cm4.h ****     #define __FPU_PRESENT             0U
 189:.\Core\Include/core_cm4.h ****     #warning "__FPU_PRESENT not defined in device header file; using default!"
 190:.\Core\Include/core_cm4.h ****   #endif
 191:.\Core\Include/core_cm4.h **** 
 192:.\Core\Include/core_cm4.h ****   #ifndef __MPU_PRESENT
 193:.\Core\Include/core_cm4.h ****     #define __MPU_PRESENT             0U
 194:.\Core\Include/core_cm4.h ****     #warning "__MPU_PRESENT not defined in device header file; using default!"
 195:.\Core\Include/core_cm4.h ****   #endif
 196:.\Core\Include/core_cm4.h **** 
 197:.\Core\Include/core_cm4.h ****   #ifndef __VTOR_PRESENT
 198:.\Core\Include/core_cm4.h ****     #define __VTOR_PRESENT             1U
 199:.\Core\Include/core_cm4.h ****     #warning "__VTOR_PRESENT not defined in device header file; using default!"
 200:.\Core\Include/core_cm4.h ****   #endif
 201:.\Core\Include/core_cm4.h ****   
 202:.\Core\Include/core_cm4.h ****   #ifndef __NVIC_PRIO_BITS
 203:.\Core\Include/core_cm4.h ****     #define __NVIC_PRIO_BITS          3U
 204:.\Core\Include/core_cm4.h ****     #warning "__NVIC_PRIO_BITS not defined in device header file; using default!"
 205:.\Core\Include/core_cm4.h ****   #endif
 206:.\Core\Include/core_cm4.h **** 
 207:.\Core\Include/core_cm4.h ****   #ifndef __Vendor_SysTickConfig
 208:.\Core\Include/core_cm4.h ****     #define __Vendor_SysTickConfig    0U
 209:.\Core\Include/core_cm4.h ****     #warning "__Vendor_SysTickConfig not defined in device header file; using default!"
 210:.\Core\Include/core_cm4.h ****   #endif
 211:.\Core\Include/core_cm4.h **** #endif
 212:.\Core\Include/core_cm4.h **** 
 213:.\Core\Include/core_cm4.h **** /* IO definitions (access restrictions to peripheral registers) */
 214:.\Core\Include/core_cm4.h **** /**
 215:.\Core\Include/core_cm4.h ****     \defgroup CMSIS_glob_defs CMSIS Global Defines
 216:.\Core\Include/core_cm4.h **** 
 217:.\Core\Include/core_cm4.h ****     <strong>IO Type Qualifiers</strong> are used
 218:.\Core\Include/core_cm4.h ****     \li to specify the access to peripheral variables.
 219:.\Core\Include/core_cm4.h ****     \li for automatic generation of peripheral register debug information.
 220:.\Core\Include/core_cm4.h **** */
 221:.\Core\Include/core_cm4.h **** #ifdef __cplusplus
 222:.\Core\Include/core_cm4.h ****   #define   __I     volatile             /*!< Defines 'read only' permissions */
 223:.\Core\Include/core_cm4.h **** #else
 224:.\Core\Include/core_cm4.h ****   #define   __I     volatile const       /*!< Defines 'read only' permissions */
 225:.\Core\Include/core_cm4.h **** #endif
 226:.\Core\Include/core_cm4.h **** #define     __O     volatile             /*!< Defines 'write only' permissions */
 227:.\Core\Include/core_cm4.h **** #define     __IO    volatile             /*!< Defines 'read / write' permissions */
 228:.\Core\Include/core_cm4.h **** 
 229:.\Core\Include/core_cm4.h **** /* following defines should be used for structure members */
 230:.\Core\Include/core_cm4.h **** #define     __IM     volatile const      /*! Defines 'read only' structure member permissions */
 231:.\Core\Include/core_cm4.h **** #define     __OM     volatile            /*! Defines 'write only' structure member permissions */
 232:.\Core\Include/core_cm4.h **** #define     __IOM    volatile            /*! Defines 'read / write' structure member permissions */
 233:.\Core\Include/core_cm4.h **** 
 234:.\Core\Include/core_cm4.h **** /*@} end of group Cortex_M4 */
 235:.\Core\Include/core_cm4.h **** 
 236:.\Core\Include/core_cm4.h **** 
 237:.\Core\Include/core_cm4.h **** 
ARM GAS  C:\Users\Ramon\AppData\Local\Temp\cc2qoQyP.s 			page 13


 238:.\Core\Include/core_cm4.h **** /*******************************************************************************
 239:.\Core\Include/core_cm4.h ****  *                 Register Abstraction
 240:.\Core\Include/core_cm4.h ****   Core Register contain:
 241:.\Core\Include/core_cm4.h ****   - Core Register
 242:.\Core\Include/core_cm4.h ****   - Core NVIC Register
 243:.\Core\Include/core_cm4.h ****   - Core SCB Register
 244:.\Core\Include/core_cm4.h ****   - Core SysTick Register
 245:.\Core\Include/core_cm4.h ****   - Core Debug Register
 246:.\Core\Include/core_cm4.h ****   - Core MPU Register
 247:.\Core\Include/core_cm4.h ****   - Core FPU Register
 248:.\Core\Include/core_cm4.h ****  ******************************************************************************/
 249:.\Core\Include/core_cm4.h **** /**
 250:.\Core\Include/core_cm4.h ****   \defgroup CMSIS_core_register Defines and Type Definitions
 251:.\Core\Include/core_cm4.h ****   \brief Type definitions and defines for Cortex-M processor based devices.
 252:.\Core\Include/core_cm4.h **** */
 253:.\Core\Include/core_cm4.h **** 
 254:.\Core\Include/core_cm4.h **** /**
 255:.\Core\Include/core_cm4.h ****   \ingroup    CMSIS_core_register
 256:.\Core\Include/core_cm4.h ****   \defgroup   CMSIS_CORE  Status and Control Registers
 257:.\Core\Include/core_cm4.h ****   \brief      Core Register type definitions.
 258:.\Core\Include/core_cm4.h ****   @{
 259:.\Core\Include/core_cm4.h ****  */
 260:.\Core\Include/core_cm4.h **** 
 261:.\Core\Include/core_cm4.h **** /**
 262:.\Core\Include/core_cm4.h ****   \brief  Union type to access the Application Program Status Register (APSR).
 263:.\Core\Include/core_cm4.h ****  */
 264:.\Core\Include/core_cm4.h **** typedef union
 265:.\Core\Include/core_cm4.h **** {
 266:.\Core\Include/core_cm4.h ****   struct
 267:.\Core\Include/core_cm4.h ****   {
 268:.\Core\Include/core_cm4.h ****     uint32_t _reserved0:16;              /*!< bit:  0..15  Reserved */
 269:.\Core\Include/core_cm4.h ****     uint32_t GE:4;                       /*!< bit: 16..19  Greater than or Equal flags */
 270:.\Core\Include/core_cm4.h ****     uint32_t _reserved1:7;               /*!< bit: 20..26  Reserved */
 271:.\Core\Include/core_cm4.h ****     uint32_t Q:1;                        /*!< bit:     27  Saturation condition flag */
 272:.\Core\Include/core_cm4.h ****     uint32_t V:1;                        /*!< bit:     28  Overflow condition code flag */
 273:.\Core\Include/core_cm4.h ****     uint32_t C:1;                        /*!< bit:     29  Carry condition code flag */
 274:.\Core\Include/core_cm4.h ****     uint32_t Z:1;                        /*!< bit:     30  Zero condition code flag */
 275:.\Core\Include/core_cm4.h ****     uint32_t N:1;                        /*!< bit:     31  Negative condition code flag */
 276:.\Core\Include/core_cm4.h ****   } b;                                   /*!< Structure used for bit  access */
 277:.\Core\Include/core_cm4.h ****   uint32_t w;                            /*!< Type      used for word access */
 278:.\Core\Include/core_cm4.h **** } APSR_Type;
 279:.\Core\Include/core_cm4.h **** 
 280:.\Core\Include/core_cm4.h **** /* APSR Register Definitions */
 281:.\Core\Include/core_cm4.h **** #define APSR_N_Pos                         31U                                            /*!< APSR
 282:.\Core\Include/core_cm4.h **** #define APSR_N_Msk                         (1UL << APSR_N_Pos)                            /*!< APSR
 283:.\Core\Include/core_cm4.h **** 
 284:.\Core\Include/core_cm4.h **** #define APSR_Z_Pos                         30U                                            /*!< APSR
 285:.\Core\Include/core_cm4.h **** #define APSR_Z_Msk                         (1UL << APSR_Z_Pos)                            /*!< APSR
 286:.\Core\Include/core_cm4.h **** 
 287:.\Core\Include/core_cm4.h **** #define APSR_C_Pos                         29U                                            /*!< APSR
 288:.\Core\Include/core_cm4.h **** #define APSR_C_Msk                         (1UL << APSR_C_Pos)                            /*!< APSR
 289:.\Core\Include/core_cm4.h **** 
 290:.\Core\Include/core_cm4.h **** #define APSR_V_Pos                         28U                                            /*!< APSR
 291:.\Core\Include/core_cm4.h **** #define APSR_V_Msk                         (1UL << APSR_V_Pos)                            /*!< APSR
 292:.\Core\Include/core_cm4.h **** 
 293:.\Core\Include/core_cm4.h **** #define APSR_Q_Pos                         27U                                            /*!< APSR
 294:.\Core\Include/core_cm4.h **** #define APSR_Q_Msk                         (1UL << APSR_Q_Pos)                            /*!< APSR
ARM GAS  C:\Users\Ramon\AppData\Local\Temp\cc2qoQyP.s 			page 14


 295:.\Core\Include/core_cm4.h **** 
 296:.\Core\Include/core_cm4.h **** #define APSR_GE_Pos                        16U                                            /*!< APSR
 297:.\Core\Include/core_cm4.h **** #define APSR_GE_Msk                        (0xFUL << APSR_GE_Pos)                         /*!< APSR
 298:.\Core\Include/core_cm4.h **** 
 299:.\Core\Include/core_cm4.h **** 
 300:.\Core\Include/core_cm4.h **** /**
 301:.\Core\Include/core_cm4.h ****   \brief  Union type to access the Interrupt Program Status Register (IPSR).
 302:.\Core\Include/core_cm4.h ****  */
 303:.\Core\Include/core_cm4.h **** typedef union
 304:.\Core\Include/core_cm4.h **** {
 305:.\Core\Include/core_cm4.h ****   struct
 306:.\Core\Include/core_cm4.h ****   {
 307:.\Core\Include/core_cm4.h ****     uint32_t ISR:9;                      /*!< bit:  0.. 8  Exception number */
 308:.\Core\Include/core_cm4.h ****     uint32_t _reserved0:23;              /*!< bit:  9..31  Reserved */
 309:.\Core\Include/core_cm4.h ****   } b;                                   /*!< Structure used for bit  access */
 310:.\Core\Include/core_cm4.h ****   uint32_t w;                            /*!< Type      used for word access */
 311:.\Core\Include/core_cm4.h **** } IPSR_Type;
 312:.\Core\Include/core_cm4.h **** 
 313:.\Core\Include/core_cm4.h **** /* IPSR Register Definitions */
 314:.\Core\Include/core_cm4.h **** #define IPSR_ISR_Pos                        0U                                            /*!< IPSR
 315:.\Core\Include/core_cm4.h **** #define IPSR_ISR_Msk                       (0x1FFUL /*<< IPSR_ISR_Pos*/)                  /*!< IPSR
 316:.\Core\Include/core_cm4.h **** 
 317:.\Core\Include/core_cm4.h **** 
 318:.\Core\Include/core_cm4.h **** /**
 319:.\Core\Include/core_cm4.h ****   \brief  Union type to access the Special-Purpose Program Status Registers (xPSR).
 320:.\Core\Include/core_cm4.h ****  */
 321:.\Core\Include/core_cm4.h **** typedef union
 322:.\Core\Include/core_cm4.h **** {
 323:.\Core\Include/core_cm4.h ****   struct
 324:.\Core\Include/core_cm4.h ****   {
 325:.\Core\Include/core_cm4.h ****     uint32_t ISR:9;                      /*!< bit:  0.. 8  Exception number */
 326:.\Core\Include/core_cm4.h ****     uint32_t _reserved0:1;               /*!< bit:      9  Reserved */
 327:.\Core\Include/core_cm4.h ****     uint32_t ICI_IT_1:6;                 /*!< bit: 10..15  ICI/IT part 1 */
 328:.\Core\Include/core_cm4.h ****     uint32_t GE:4;                       /*!< bit: 16..19  Greater than or Equal flags */
 329:.\Core\Include/core_cm4.h ****     uint32_t _reserved1:4;               /*!< bit: 20..23  Reserved */
 330:.\Core\Include/core_cm4.h ****     uint32_t T:1;                        /*!< bit:     24  Thumb bit */
 331:.\Core\Include/core_cm4.h ****     uint32_t ICI_IT_2:2;                 /*!< bit: 25..26  ICI/IT part 2 */
 332:.\Core\Include/core_cm4.h ****     uint32_t Q:1;                        /*!< bit:     27  Saturation condition flag */
 333:.\Core\Include/core_cm4.h ****     uint32_t V:1;                        /*!< bit:     28  Overflow condition code flag */
 334:.\Core\Include/core_cm4.h ****     uint32_t C:1;                        /*!< bit:     29  Carry condition code flag */
 335:.\Core\Include/core_cm4.h ****     uint32_t Z:1;                        /*!< bit:     30  Zero condition code flag */
 336:.\Core\Include/core_cm4.h ****     uint32_t N:1;                        /*!< bit:     31  Negative condition code flag */
 337:.\Core\Include/core_cm4.h ****   } b;                                   /*!< Structure used for bit  access */
 338:.\Core\Include/core_cm4.h ****   uint32_t w;                            /*!< Type      used for word access */
 339:.\Core\Include/core_cm4.h **** } xPSR_Type;
 340:.\Core\Include/core_cm4.h **** 
 341:.\Core\Include/core_cm4.h **** /* xPSR Register Definitions */
 342:.\Core\Include/core_cm4.h **** #define xPSR_N_Pos                         31U                                            /*!< xPSR
 343:.\Core\Include/core_cm4.h **** #define xPSR_N_Msk                         (1UL << xPSR_N_Pos)                            /*!< xPSR
 344:.\Core\Include/core_cm4.h **** 
 345:.\Core\Include/core_cm4.h **** #define xPSR_Z_Pos                         30U                                            /*!< xPSR
 346:.\Core\Include/core_cm4.h **** #define xPSR_Z_Msk                         (1UL << xPSR_Z_Pos)                            /*!< xPSR
 347:.\Core\Include/core_cm4.h **** 
 348:.\Core\Include/core_cm4.h **** #define xPSR_C_Pos                         29U                                            /*!< xPSR
 349:.\Core\Include/core_cm4.h **** #define xPSR_C_Msk                         (1UL << xPSR_C_Pos)                            /*!< xPSR
 350:.\Core\Include/core_cm4.h **** 
 351:.\Core\Include/core_cm4.h **** #define xPSR_V_Pos                         28U                                            /*!< xPSR
ARM GAS  C:\Users\Ramon\AppData\Local\Temp\cc2qoQyP.s 			page 15


 352:.\Core\Include/core_cm4.h **** #define xPSR_V_Msk                         (1UL << xPSR_V_Pos)                            /*!< xPSR
 353:.\Core\Include/core_cm4.h **** 
 354:.\Core\Include/core_cm4.h **** #define xPSR_Q_Pos                         27U                                            /*!< xPSR
 355:.\Core\Include/core_cm4.h **** #define xPSR_Q_Msk                         (1UL << xPSR_Q_Pos)                            /*!< xPSR
 356:.\Core\Include/core_cm4.h **** 
 357:.\Core\Include/core_cm4.h **** #define xPSR_ICI_IT_2_Pos                  25U                                            /*!< xPSR
 358:.\Core\Include/core_cm4.h **** #define xPSR_ICI_IT_2_Msk                  (3UL << xPSR_ICI_IT_2_Pos)                     /*!< xPSR
 359:.\Core\Include/core_cm4.h **** 
 360:.\Core\Include/core_cm4.h **** #define xPSR_T_Pos                         24U                                            /*!< xPSR
 361:.\Core\Include/core_cm4.h **** #define xPSR_T_Msk                         (1UL << xPSR_T_Pos)                            /*!< xPSR
 362:.\Core\Include/core_cm4.h **** 
 363:.\Core\Include/core_cm4.h **** #define xPSR_GE_Pos                        16U                                            /*!< xPSR
 364:.\Core\Include/core_cm4.h **** #define xPSR_GE_Msk                        (0xFUL << xPSR_GE_Pos)                         /*!< xPSR
 365:.\Core\Include/core_cm4.h **** 
 366:.\Core\Include/core_cm4.h **** #define xPSR_ICI_IT_1_Pos                  10U                                            /*!< xPSR
 367:.\Core\Include/core_cm4.h **** #define xPSR_ICI_IT_1_Msk                  (0x3FUL << xPSR_ICI_IT_1_Pos)                  /*!< xPSR
 368:.\Core\Include/core_cm4.h **** 
 369:.\Core\Include/core_cm4.h **** #define xPSR_ISR_Pos                        0U                                            /*!< xPSR
 370:.\Core\Include/core_cm4.h **** #define xPSR_ISR_Msk                       (0x1FFUL /*<< xPSR_ISR_Pos*/)                  /*!< xPSR
 371:.\Core\Include/core_cm4.h **** 
 372:.\Core\Include/core_cm4.h **** 
 373:.\Core\Include/core_cm4.h **** /**
 374:.\Core\Include/core_cm4.h ****   \brief  Union type to access the Control Registers (CONTROL).
 375:.\Core\Include/core_cm4.h ****  */
 376:.\Core\Include/core_cm4.h **** typedef union
 377:.\Core\Include/core_cm4.h **** {
 378:.\Core\Include/core_cm4.h ****   struct
 379:.\Core\Include/core_cm4.h ****   {
 380:.\Core\Include/core_cm4.h ****     uint32_t nPRIV:1;                    /*!< bit:      0  Execution privilege in Thread mode */
 381:.\Core\Include/core_cm4.h ****     uint32_t SPSEL:1;                    /*!< bit:      1  Stack to be used */
 382:.\Core\Include/core_cm4.h ****     uint32_t FPCA:1;                     /*!< bit:      2  FP extension active flag */
 383:.\Core\Include/core_cm4.h ****     uint32_t _reserved0:29;              /*!< bit:  3..31  Reserved */
 384:.\Core\Include/core_cm4.h ****   } b;                                   /*!< Structure used for bit  access */
 385:.\Core\Include/core_cm4.h ****   uint32_t w;                            /*!< Type      used for word access */
 386:.\Core\Include/core_cm4.h **** } CONTROL_Type;
 387:.\Core\Include/core_cm4.h **** 
 388:.\Core\Include/core_cm4.h **** /* CONTROL Register Definitions */
 389:.\Core\Include/core_cm4.h **** #define CONTROL_FPCA_Pos                    2U                                            /*!< CONT
 390:.\Core\Include/core_cm4.h **** #define CONTROL_FPCA_Msk                   (1UL << CONTROL_FPCA_Pos)                      /*!< CONT
 391:.\Core\Include/core_cm4.h **** 
 392:.\Core\Include/core_cm4.h **** #define CONTROL_SPSEL_Pos                   1U                                            /*!< CONT
 393:.\Core\Include/core_cm4.h **** #define CONTROL_SPSEL_Msk                  (1UL << CONTROL_SPSEL_Pos)                     /*!< CONT
 394:.\Core\Include/core_cm4.h **** 
 395:.\Core\Include/core_cm4.h **** #define CONTROL_nPRIV_Pos                   0U                                            /*!< CONT
 396:.\Core\Include/core_cm4.h **** #define CONTROL_nPRIV_Msk                  (1UL /*<< CONTROL_nPRIV_Pos*/)                 /*!< CONT
 397:.\Core\Include/core_cm4.h **** 
 398:.\Core\Include/core_cm4.h **** /*@} end of group CMSIS_CORE */
 399:.\Core\Include/core_cm4.h **** 
 400:.\Core\Include/core_cm4.h **** 
 401:.\Core\Include/core_cm4.h **** /**
 402:.\Core\Include/core_cm4.h ****   \ingroup    CMSIS_core_register
 403:.\Core\Include/core_cm4.h ****   \defgroup   CMSIS_NVIC  Nested Vectored Interrupt Controller (NVIC)
 404:.\Core\Include/core_cm4.h ****   \brief      Type definitions for the NVIC Registers
 405:.\Core\Include/core_cm4.h ****   @{
 406:.\Core\Include/core_cm4.h ****  */
 407:.\Core\Include/core_cm4.h **** 
 408:.\Core\Include/core_cm4.h **** /**
ARM GAS  C:\Users\Ramon\AppData\Local\Temp\cc2qoQyP.s 			page 16


 409:.\Core\Include/core_cm4.h ****   \brief  Structure type to access the Nested Vectored Interrupt Controller (NVIC).
 410:.\Core\Include/core_cm4.h ****  */
 411:.\Core\Include/core_cm4.h **** typedef struct
 412:.\Core\Include/core_cm4.h **** {
 413:.\Core\Include/core_cm4.h ****   __IOM uint32_t ISER[8U];               /*!< Offset: 0x000 (R/W)  Interrupt Set Enable Register */
 414:.\Core\Include/core_cm4.h ****         uint32_t RESERVED0[24U];
 415:.\Core\Include/core_cm4.h ****   __IOM uint32_t ICER[8U];               /*!< Offset: 0x080 (R/W)  Interrupt Clear Enable Register 
 416:.\Core\Include/core_cm4.h ****         uint32_t RESERVED1[24U];
 417:.\Core\Include/core_cm4.h ****   __IOM uint32_t ISPR[8U];               /*!< Offset: 0x100 (R/W)  Interrupt Set Pending Register *
 418:.\Core\Include/core_cm4.h ****         uint32_t RESERVED2[24U];
 419:.\Core\Include/core_cm4.h ****   __IOM uint32_t ICPR[8U];               /*!< Offset: 0x180 (R/W)  Interrupt Clear Pending Register
 420:.\Core\Include/core_cm4.h ****         uint32_t RESERVED3[24U];
 421:.\Core\Include/core_cm4.h ****   __IOM uint32_t IABR[8U];               /*!< Offset: 0x200 (R/W)  Interrupt Active bit Register */
 422:.\Core\Include/core_cm4.h ****         uint32_t RESERVED4[56U];
 423:.\Core\Include/core_cm4.h ****   __IOM uint8_t  IP[240U];               /*!< Offset: 0x300 (R/W)  Interrupt Priority Register (8Bi
 424:.\Core\Include/core_cm4.h ****         uint32_t RESERVED5[644U];
 425:.\Core\Include/core_cm4.h ****   __OM  uint32_t STIR;                   /*!< Offset: 0xE00 ( /W)  Software Trigger Interrupt Regis
 426:.\Core\Include/core_cm4.h **** }  NVIC_Type;
 427:.\Core\Include/core_cm4.h **** 
 428:.\Core\Include/core_cm4.h **** /* Software Triggered Interrupt Register Definitions */
 429:.\Core\Include/core_cm4.h **** #define NVIC_STIR_INTID_Pos                 0U                                         /*!< STIR: I
 430:.\Core\Include/core_cm4.h **** #define NVIC_STIR_INTID_Msk                (0x1FFUL /*<< NVIC_STIR_INTID_Pos*/)        /*!< STIR: I
 431:.\Core\Include/core_cm4.h **** 
 432:.\Core\Include/core_cm4.h **** /*@} end of group CMSIS_NVIC */
 433:.\Core\Include/core_cm4.h **** 
 434:.\Core\Include/core_cm4.h **** 
 435:.\Core\Include/core_cm4.h **** /**
 436:.\Core\Include/core_cm4.h ****   \ingroup  CMSIS_core_register
 437:.\Core\Include/core_cm4.h ****   \defgroup CMSIS_SCB     System Control Block (SCB)
 438:.\Core\Include/core_cm4.h ****   \brief    Type definitions for the System Control Block Registers
 439:.\Core\Include/core_cm4.h ****   @{
 440:.\Core\Include/core_cm4.h ****  */
 441:.\Core\Include/core_cm4.h **** 
 442:.\Core\Include/core_cm4.h **** /**
 443:.\Core\Include/core_cm4.h ****   \brief  Structure type to access the System Control Block (SCB).
 444:.\Core\Include/core_cm4.h ****  */
 445:.\Core\Include/core_cm4.h **** typedef struct
 446:.\Core\Include/core_cm4.h **** {
 447:.\Core\Include/core_cm4.h ****   __IM  uint32_t CPUID;                  /*!< Offset: 0x000 (R/ )  CPUID Base Register */
 448:.\Core\Include/core_cm4.h ****   __IOM uint32_t ICSR;                   /*!< Offset: 0x004 (R/W)  Interrupt Control and State Regi
 449:.\Core\Include/core_cm4.h ****   __IOM uint32_t VTOR;                   /*!< Offset: 0x008 (R/W)  Vector Table Offset Register */
 450:.\Core\Include/core_cm4.h ****   __IOM uint32_t AIRCR;                  /*!< Offset: 0x00C (R/W)  Application Interrupt and Reset 
 451:.\Core\Include/core_cm4.h ****   __IOM uint32_t SCR;                    /*!< Offset: 0x010 (R/W)  System Control Register */
 452:.\Core\Include/core_cm4.h ****   __IOM uint32_t CCR;                    /*!< Offset: 0x014 (R/W)  Configuration Control Register *
 453:.\Core\Include/core_cm4.h ****   __IOM uint8_t  SHP[12U];               /*!< Offset: 0x018 (R/W)  System Handlers Priority Registe
 454:.\Core\Include/core_cm4.h ****   __IOM uint32_t SHCSR;                  /*!< Offset: 0x024 (R/W)  System Handler Control and State
 455:.\Core\Include/core_cm4.h ****   __IOM uint32_t CFSR;                   /*!< Offset: 0x028 (R/W)  Configurable Fault Status Regist
 456:.\Core\Include/core_cm4.h ****   __IOM uint32_t HFSR;                   /*!< Offset: 0x02C (R/W)  HardFault Status Register */
 457:.\Core\Include/core_cm4.h ****   __IOM uint32_t DFSR;                   /*!< Offset: 0x030 (R/W)  Debug Fault Status Register */
 458:.\Core\Include/core_cm4.h ****   __IOM uint32_t MMFAR;                  /*!< Offset: 0x034 (R/W)  MemManage Fault Address Register
 459:.\Core\Include/core_cm4.h ****   __IOM uint32_t BFAR;                   /*!< Offset: 0x038 (R/W)  BusFault Address Register */
 460:.\Core\Include/core_cm4.h ****   __IOM uint32_t AFSR;                   /*!< Offset: 0x03C (R/W)  Auxiliary Fault Status Register 
 461:.\Core\Include/core_cm4.h ****   __IM  uint32_t PFR[2U];                /*!< Offset: 0x040 (R/ )  Processor Feature Register */
 462:.\Core\Include/core_cm4.h ****   __IM  uint32_t DFR;                    /*!< Offset: 0x048 (R/ )  Debug Feature Register */
 463:.\Core\Include/core_cm4.h ****   __IM  uint32_t ADR;                    /*!< Offset: 0x04C (R/ )  Auxiliary Feature Register */
 464:.\Core\Include/core_cm4.h ****   __IM  uint32_t MMFR[4U];               /*!< Offset: 0x050 (R/ )  Memory Model Feature Register */
 465:.\Core\Include/core_cm4.h ****   __IM  uint32_t ISAR[5U];               /*!< Offset: 0x060 (R/ )  Instruction Set Attributes Regis
ARM GAS  C:\Users\Ramon\AppData\Local\Temp\cc2qoQyP.s 			page 17


 466:.\Core\Include/core_cm4.h ****         uint32_t RESERVED0[5U];
 467:.\Core\Include/core_cm4.h ****   __IOM uint32_t CPACR;                  /*!< Offset: 0x088 (R/W)  Coprocessor Access Control Regis
 468:.\Core\Include/core_cm4.h **** } SCB_Type;
 469:.\Core\Include/core_cm4.h **** 
 470:.\Core\Include/core_cm4.h **** /* SCB CPUID Register Definitions */
 471:.\Core\Include/core_cm4.h **** #define SCB_CPUID_IMPLEMENTER_Pos          24U                                            /*!< SCB 
 472:.\Core\Include/core_cm4.h **** #define SCB_CPUID_IMPLEMENTER_Msk          (0xFFUL << SCB_CPUID_IMPLEMENTER_Pos)          /*!< SCB 
 473:.\Core\Include/core_cm4.h **** 
 474:.\Core\Include/core_cm4.h **** #define SCB_CPUID_VARIANT_Pos              20U                                            /*!< SCB 
 475:.\Core\Include/core_cm4.h **** #define SCB_CPUID_VARIANT_Msk              (0xFUL << SCB_CPUID_VARIANT_Pos)               /*!< SCB 
 476:.\Core\Include/core_cm4.h **** 
 477:.\Core\Include/core_cm4.h **** #define SCB_CPUID_ARCHITECTURE_Pos         16U                                            /*!< SCB 
 478:.\Core\Include/core_cm4.h **** #define SCB_CPUID_ARCHITECTURE_Msk         (0xFUL << SCB_CPUID_ARCHITECTURE_Pos)          /*!< SCB 
 479:.\Core\Include/core_cm4.h **** 
 480:.\Core\Include/core_cm4.h **** #define SCB_CPUID_PARTNO_Pos                4U                                            /*!< SCB 
 481:.\Core\Include/core_cm4.h **** #define SCB_CPUID_PARTNO_Msk               (0xFFFUL << SCB_CPUID_PARTNO_Pos)              /*!< SCB 
 482:.\Core\Include/core_cm4.h **** 
 483:.\Core\Include/core_cm4.h **** #define SCB_CPUID_REVISION_Pos              0U                                            /*!< SCB 
 484:.\Core\Include/core_cm4.h **** #define SCB_CPUID_REVISION_Msk             (0xFUL /*<< SCB_CPUID_REVISION_Pos*/)          /*!< SCB 
 485:.\Core\Include/core_cm4.h **** 
 486:.\Core\Include/core_cm4.h **** /* SCB Interrupt Control State Register Definitions */
 487:.\Core\Include/core_cm4.h **** #define SCB_ICSR_NMIPENDSET_Pos            31U                                            /*!< SCB 
 488:.\Core\Include/core_cm4.h **** #define SCB_ICSR_NMIPENDSET_Msk            (1UL << SCB_ICSR_NMIPENDSET_Pos)               /*!< SCB 
 489:.\Core\Include/core_cm4.h **** 
 490:.\Core\Include/core_cm4.h **** #define SCB_ICSR_PENDSVSET_Pos             28U                                            /*!< SCB 
 491:.\Core\Include/core_cm4.h **** #define SCB_ICSR_PENDSVSET_Msk             (1UL << SCB_ICSR_PENDSVSET_Pos)                /*!< SCB 
 492:.\Core\Include/core_cm4.h **** 
 493:.\Core\Include/core_cm4.h **** #define SCB_ICSR_PENDSVCLR_Pos             27U                                            /*!< SCB 
 494:.\Core\Include/core_cm4.h **** #define SCB_ICSR_PENDSVCLR_Msk             (1UL << SCB_ICSR_PENDSVCLR_Pos)                /*!< SCB 
 495:.\Core\Include/core_cm4.h **** 
 496:.\Core\Include/core_cm4.h **** #define SCB_ICSR_PENDSTSET_Pos             26U                                            /*!< SCB 
 497:.\Core\Include/core_cm4.h **** #define SCB_ICSR_PENDSTSET_Msk             (1UL << SCB_ICSR_PENDSTSET_Pos)                /*!< SCB 
 498:.\Core\Include/core_cm4.h **** 
 499:.\Core\Include/core_cm4.h **** #define SCB_ICSR_PENDSTCLR_Pos             25U                                            /*!< SCB 
 500:.\Core\Include/core_cm4.h **** #define SCB_ICSR_PENDSTCLR_Msk             (1UL << SCB_ICSR_PENDSTCLR_Pos)                /*!< SCB 
 501:.\Core\Include/core_cm4.h **** 
 502:.\Core\Include/core_cm4.h **** #define SCB_ICSR_ISRPREEMPT_Pos            23U                                            /*!< SCB 
 503:.\Core\Include/core_cm4.h **** #define SCB_ICSR_ISRPREEMPT_Msk            (1UL << SCB_ICSR_ISRPREEMPT_Pos)               /*!< SCB 
 504:.\Core\Include/core_cm4.h **** 
 505:.\Core\Include/core_cm4.h **** #define SCB_ICSR_ISRPENDING_Pos            22U                                            /*!< SCB 
 506:.\Core\Include/core_cm4.h **** #define SCB_ICSR_ISRPENDING_Msk            (1UL << SCB_ICSR_ISRPENDING_Pos)               /*!< SCB 
 507:.\Core\Include/core_cm4.h **** 
 508:.\Core\Include/core_cm4.h **** #define SCB_ICSR_VECTPENDING_Pos           12U                                            /*!< SCB 
 509:.\Core\Include/core_cm4.h **** #define SCB_ICSR_VECTPENDING_Msk           (0x1FFUL << SCB_ICSR_VECTPENDING_Pos)          /*!< SCB 
 510:.\Core\Include/core_cm4.h **** 
 511:.\Core\Include/core_cm4.h **** #define SCB_ICSR_RETTOBASE_Pos             11U                                            /*!< SCB 
 512:.\Core\Include/core_cm4.h **** #define SCB_ICSR_RETTOBASE_Msk             (1UL << SCB_ICSR_RETTOBASE_Pos)                /*!< SCB 
 513:.\Core\Include/core_cm4.h **** 
 514:.\Core\Include/core_cm4.h **** #define SCB_ICSR_VECTACTIVE_Pos             0U                                            /*!< SCB 
 515:.\Core\Include/core_cm4.h **** #define SCB_ICSR_VECTACTIVE_Msk            (0x1FFUL /*<< SCB_ICSR_VECTACTIVE_Pos*/)       /*!< SCB 
 516:.\Core\Include/core_cm4.h **** 
 517:.\Core\Include/core_cm4.h **** /* SCB Vector Table Offset Register Definitions */
 518:.\Core\Include/core_cm4.h **** #define SCB_VTOR_TBLOFF_Pos                 7U                                            /*!< SCB 
 519:.\Core\Include/core_cm4.h **** #define SCB_VTOR_TBLOFF_Msk                (0x1FFFFFFUL << SCB_VTOR_TBLOFF_Pos)           /*!< SCB 
 520:.\Core\Include/core_cm4.h **** 
 521:.\Core\Include/core_cm4.h **** /* SCB Application Interrupt and Reset Control Register Definitions */
 522:.\Core\Include/core_cm4.h **** #define SCB_AIRCR_VECTKEY_Pos              16U                                            /*!< SCB 
ARM GAS  C:\Users\Ramon\AppData\Local\Temp\cc2qoQyP.s 			page 18


 523:.\Core\Include/core_cm4.h **** #define SCB_AIRCR_VECTKEY_Msk              (0xFFFFUL << SCB_AIRCR_VECTKEY_Pos)            /*!< SCB 
 524:.\Core\Include/core_cm4.h **** 
 525:.\Core\Include/core_cm4.h **** #define SCB_AIRCR_VECTKEYSTAT_Pos          16U                                            /*!< SCB 
 526:.\Core\Include/core_cm4.h **** #define SCB_AIRCR_VECTKEYSTAT_Msk          (0xFFFFUL << SCB_AIRCR_VECTKEYSTAT_Pos)        /*!< SCB 
 527:.\Core\Include/core_cm4.h **** 
 528:.\Core\Include/core_cm4.h **** #define SCB_AIRCR_ENDIANESS_Pos            15U                                            /*!< SCB 
 529:.\Core\Include/core_cm4.h **** #define SCB_AIRCR_ENDIANESS_Msk            (1UL << SCB_AIRCR_ENDIANESS_Pos)               /*!< SCB 
 530:.\Core\Include/core_cm4.h **** 
 531:.\Core\Include/core_cm4.h **** #define SCB_AIRCR_PRIGROUP_Pos              8U                                            /*!< SCB 
 532:.\Core\Include/core_cm4.h **** #define SCB_AIRCR_PRIGROUP_Msk             (7UL << SCB_AIRCR_PRIGROUP_Pos)                /*!< SCB 
 533:.\Core\Include/core_cm4.h **** 
 534:.\Core\Include/core_cm4.h **** #define SCB_AIRCR_SYSRESETREQ_Pos           2U                                            /*!< SCB 
 535:.\Core\Include/core_cm4.h **** #define SCB_AIRCR_SYSRESETREQ_Msk          (1UL << SCB_AIRCR_SYSRESETREQ_Pos)             /*!< SCB 
 536:.\Core\Include/core_cm4.h **** 
 537:.\Core\Include/core_cm4.h **** #define SCB_AIRCR_VECTCLRACTIVE_Pos         1U                                            /*!< SCB 
 538:.\Core\Include/core_cm4.h **** #define SCB_AIRCR_VECTCLRACTIVE_Msk        (1UL << SCB_AIRCR_VECTCLRACTIVE_Pos)           /*!< SCB 
 539:.\Core\Include/core_cm4.h **** 
 540:.\Core\Include/core_cm4.h **** #define SCB_AIRCR_VECTRESET_Pos             0U                                            /*!< SCB 
 541:.\Core\Include/core_cm4.h **** #define SCB_AIRCR_VECTRESET_Msk            (1UL /*<< SCB_AIRCR_VECTRESET_Pos*/)           /*!< SCB 
 542:.\Core\Include/core_cm4.h **** 
 543:.\Core\Include/core_cm4.h **** /* SCB System Control Register Definitions */
 544:.\Core\Include/core_cm4.h **** #define SCB_SCR_SEVONPEND_Pos               4U                                            /*!< SCB 
 545:.\Core\Include/core_cm4.h **** #define SCB_SCR_SEVONPEND_Msk              (1UL << SCB_SCR_SEVONPEND_Pos)                 /*!< SCB 
 546:.\Core\Include/core_cm4.h **** 
 547:.\Core\Include/core_cm4.h **** #define SCB_SCR_SLEEPDEEP_Pos               2U                                            /*!< SCB 
 548:.\Core\Include/core_cm4.h **** #define SCB_SCR_SLEEPDEEP_Msk              (1UL << SCB_SCR_SLEEPDEEP_Pos)                 /*!< SCB 
 549:.\Core\Include/core_cm4.h **** 
 550:.\Core\Include/core_cm4.h **** #define SCB_SCR_SLEEPONEXIT_Pos             1U                                            /*!< SCB 
 551:.\Core\Include/core_cm4.h **** #define SCB_SCR_SLEEPONEXIT_Msk            (1UL << SCB_SCR_SLEEPONEXIT_Pos)               /*!< SCB 
 552:.\Core\Include/core_cm4.h **** 
 553:.\Core\Include/core_cm4.h **** /* SCB Configuration Control Register Definitions */
 554:.\Core\Include/core_cm4.h **** #define SCB_CCR_STKALIGN_Pos                9U                                            /*!< SCB 
 555:.\Core\Include/core_cm4.h **** #define SCB_CCR_STKALIGN_Msk               (1UL << SCB_CCR_STKALIGN_Pos)                  /*!< SCB 
 556:.\Core\Include/core_cm4.h **** 
 557:.\Core\Include/core_cm4.h **** #define SCB_CCR_BFHFNMIGN_Pos               8U                                            /*!< SCB 
 558:.\Core\Include/core_cm4.h **** #define SCB_CCR_BFHFNMIGN_Msk              (1UL << SCB_CCR_BFHFNMIGN_Pos)                 /*!< SCB 
 559:.\Core\Include/core_cm4.h **** 
 560:.\Core\Include/core_cm4.h **** #define SCB_CCR_DIV_0_TRP_Pos               4U                                            /*!< SCB 
 561:.\Core\Include/core_cm4.h **** #define SCB_CCR_DIV_0_TRP_Msk              (1UL << SCB_CCR_DIV_0_TRP_Pos)                 /*!< SCB 
 562:.\Core\Include/core_cm4.h **** 
 563:.\Core\Include/core_cm4.h **** #define SCB_CCR_UNALIGN_TRP_Pos             3U                                            /*!< SCB 
 564:.\Core\Include/core_cm4.h **** #define SCB_CCR_UNALIGN_TRP_Msk            (1UL << SCB_CCR_UNALIGN_TRP_Pos)               /*!< SCB 
 565:.\Core\Include/core_cm4.h **** 
 566:.\Core\Include/core_cm4.h **** #define SCB_CCR_USERSETMPEND_Pos            1U                                            /*!< SCB 
 567:.\Core\Include/core_cm4.h **** #define SCB_CCR_USERSETMPEND_Msk           (1UL << SCB_CCR_USERSETMPEND_Pos)              /*!< SCB 
 568:.\Core\Include/core_cm4.h **** 
 569:.\Core\Include/core_cm4.h **** #define SCB_CCR_NONBASETHRDENA_Pos          0U                                            /*!< SCB 
 570:.\Core\Include/core_cm4.h **** #define SCB_CCR_NONBASETHRDENA_Msk         (1UL /*<< SCB_CCR_NONBASETHRDENA_Pos*/)        /*!< SCB 
 571:.\Core\Include/core_cm4.h **** 
 572:.\Core\Include/core_cm4.h **** /* SCB System Handler Control and State Register Definitions */
 573:.\Core\Include/core_cm4.h **** #define SCB_SHCSR_USGFAULTENA_Pos          18U                                            /*!< SCB 
 574:.\Core\Include/core_cm4.h **** #define SCB_SHCSR_USGFAULTENA_Msk          (1UL << SCB_SHCSR_USGFAULTENA_Pos)             /*!< SCB 
 575:.\Core\Include/core_cm4.h **** 
 576:.\Core\Include/core_cm4.h **** #define SCB_SHCSR_BUSFAULTENA_Pos          17U                                            /*!< SCB 
 577:.\Core\Include/core_cm4.h **** #define SCB_SHCSR_BUSFAULTENA_Msk          (1UL << SCB_SHCSR_BUSFAULTENA_Pos)             /*!< SCB 
 578:.\Core\Include/core_cm4.h **** 
 579:.\Core\Include/core_cm4.h **** #define SCB_SHCSR_MEMFAULTENA_Pos          16U                                            /*!< SCB 
ARM GAS  C:\Users\Ramon\AppData\Local\Temp\cc2qoQyP.s 			page 19


 580:.\Core\Include/core_cm4.h **** #define SCB_SHCSR_MEMFAULTENA_Msk          (1UL << SCB_SHCSR_MEMFAULTENA_Pos)             /*!< SCB 
 581:.\Core\Include/core_cm4.h **** 
 582:.\Core\Include/core_cm4.h **** #define SCB_SHCSR_SVCALLPENDED_Pos         15U                                            /*!< SCB 
 583:.\Core\Include/core_cm4.h **** #define SCB_SHCSR_SVCALLPENDED_Msk         (1UL << SCB_SHCSR_SVCALLPENDED_Pos)            /*!< SCB 
 584:.\Core\Include/core_cm4.h **** 
 585:.\Core\Include/core_cm4.h **** #define SCB_SHCSR_BUSFAULTPENDED_Pos       14U                                            /*!< SCB 
 586:.\Core\Include/core_cm4.h **** #define SCB_SHCSR_BUSFAULTPENDED_Msk       (1UL << SCB_SHCSR_BUSFAULTPENDED_Pos)          /*!< SCB 
 587:.\Core\Include/core_cm4.h **** 
 588:.\Core\Include/core_cm4.h **** #define SCB_SHCSR_MEMFAULTPENDED_Pos       13U                                            /*!< SCB 
 589:.\Core\Include/core_cm4.h **** #define SCB_SHCSR_MEMFAULTPENDED_Msk       (1UL << SCB_SHCSR_MEMFAULTPENDED_Pos)          /*!< SCB 
 590:.\Core\Include/core_cm4.h **** 
 591:.\Core\Include/core_cm4.h **** #define SCB_SHCSR_USGFAULTPENDED_Pos       12U                                            /*!< SCB 
 592:.\Core\Include/core_cm4.h **** #define SCB_SHCSR_USGFAULTPENDED_Msk       (1UL << SCB_SHCSR_USGFAULTPENDED_Pos)          /*!< SCB 
 593:.\Core\Include/core_cm4.h **** 
 594:.\Core\Include/core_cm4.h **** #define SCB_SHCSR_SYSTICKACT_Pos           11U                                            /*!< SCB 
 595:.\Core\Include/core_cm4.h **** #define SCB_SHCSR_SYSTICKACT_Msk           (1UL << SCB_SHCSR_SYSTICKACT_Pos)              /*!< SCB 
 596:.\Core\Include/core_cm4.h **** 
 597:.\Core\Include/core_cm4.h **** #define SCB_SHCSR_PENDSVACT_Pos            10U                                            /*!< SCB 
 598:.\Core\Include/core_cm4.h **** #define SCB_SHCSR_PENDSVACT_Msk            (1UL << SCB_SHCSR_PENDSVACT_Pos)               /*!< SCB 
 599:.\Core\Include/core_cm4.h **** 
 600:.\Core\Include/core_cm4.h **** #define SCB_SHCSR_MONITORACT_Pos            8U                                            /*!< SCB 
 601:.\Core\Include/core_cm4.h **** #define SCB_SHCSR_MONITORACT_Msk           (1UL << SCB_SHCSR_MONITORACT_Pos)              /*!< SCB 
 602:.\Core\Include/core_cm4.h **** 
 603:.\Core\Include/core_cm4.h **** #define SCB_SHCSR_SVCALLACT_Pos             7U                                            /*!< SCB 
 604:.\Core\Include/core_cm4.h **** #define SCB_SHCSR_SVCALLACT_Msk            (1UL << SCB_SHCSR_SVCALLACT_Pos)               /*!< SCB 
 605:.\Core\Include/core_cm4.h **** 
 606:.\Core\Include/core_cm4.h **** #define SCB_SHCSR_USGFAULTACT_Pos           3U                                            /*!< SCB 
 607:.\Core\Include/core_cm4.h **** #define SCB_SHCSR_USGFAULTACT_Msk          (1UL << SCB_SHCSR_USGFAULTACT_Pos)             /*!< SCB 
 608:.\Core\Include/core_cm4.h **** 
 609:.\Core\Include/core_cm4.h **** #define SCB_SHCSR_BUSFAULTACT_Pos           1U                                            /*!< SCB 
 610:.\Core\Include/core_cm4.h **** #define SCB_SHCSR_BUSFAULTACT_Msk          (1UL << SCB_SHCSR_BUSFAULTACT_Pos)             /*!< SCB 
 611:.\Core\Include/core_cm4.h **** 
 612:.\Core\Include/core_cm4.h **** #define SCB_SHCSR_MEMFAULTACT_Pos           0U                                            /*!< SCB 
 613:.\Core\Include/core_cm4.h **** #define SCB_SHCSR_MEMFAULTACT_Msk          (1UL /*<< SCB_SHCSR_MEMFAULTACT_Pos*/)         /*!< SCB 
 614:.\Core\Include/core_cm4.h **** 
 615:.\Core\Include/core_cm4.h **** /* SCB Configurable Fault Status Register Definitions */
 616:.\Core\Include/core_cm4.h **** #define SCB_CFSR_USGFAULTSR_Pos            16U                                            /*!< SCB 
 617:.\Core\Include/core_cm4.h **** #define SCB_CFSR_USGFAULTSR_Msk            (0xFFFFUL << SCB_CFSR_USGFAULTSR_Pos)          /*!< SCB 
 618:.\Core\Include/core_cm4.h **** 
 619:.\Core\Include/core_cm4.h **** #define SCB_CFSR_BUSFAULTSR_Pos             8U                                            /*!< SCB 
 620:.\Core\Include/core_cm4.h **** #define SCB_CFSR_BUSFAULTSR_Msk            (0xFFUL << SCB_CFSR_BUSFAULTSR_Pos)            /*!< SCB 
 621:.\Core\Include/core_cm4.h **** 
 622:.\Core\Include/core_cm4.h **** #define SCB_CFSR_MEMFAULTSR_Pos             0U                                            /*!< SCB 
 623:.\Core\Include/core_cm4.h **** #define SCB_CFSR_MEMFAULTSR_Msk            (0xFFUL /*<< SCB_CFSR_MEMFAULTSR_Pos*/)        /*!< SCB 
 624:.\Core\Include/core_cm4.h **** 
 625:.\Core\Include/core_cm4.h **** /* MemManage Fault Status Register (part of SCB Configurable Fault Status Register) */
 626:.\Core\Include/core_cm4.h **** #define SCB_CFSR_MMARVALID_Pos             (SCB_SHCSR_MEMFAULTACT_Pos + 7U)               /*!< SCB 
 627:.\Core\Include/core_cm4.h **** #define SCB_CFSR_MMARVALID_Msk             (1UL << SCB_CFSR_MMARVALID_Pos)                /*!< SCB 
 628:.\Core\Include/core_cm4.h **** 
 629:.\Core\Include/core_cm4.h **** #define SCB_CFSR_MLSPERR_Pos               (SCB_SHCSR_MEMFAULTACT_Pos + 5U)               /*!< SCB 
 630:.\Core\Include/core_cm4.h **** #define SCB_CFSR_MLSPERR_Msk               (1UL << SCB_CFSR_MLSPERR_Pos)                  /*!< SCB 
 631:.\Core\Include/core_cm4.h **** 
 632:.\Core\Include/core_cm4.h **** #define SCB_CFSR_MSTKERR_Pos               (SCB_SHCSR_MEMFAULTACT_Pos + 4U)               /*!< SCB 
 633:.\Core\Include/core_cm4.h **** #define SCB_CFSR_MSTKERR_Msk               (1UL << SCB_CFSR_MSTKERR_Pos)                  /*!< SCB 
 634:.\Core\Include/core_cm4.h **** 
 635:.\Core\Include/core_cm4.h **** #define SCB_CFSR_MUNSTKERR_Pos             (SCB_SHCSR_MEMFAULTACT_Pos + 3U)               /*!< SCB 
 636:.\Core\Include/core_cm4.h **** #define SCB_CFSR_MUNSTKERR_Msk             (1UL << SCB_CFSR_MUNSTKERR_Pos)                /*!< SCB 
ARM GAS  C:\Users\Ramon\AppData\Local\Temp\cc2qoQyP.s 			page 20


 637:.\Core\Include/core_cm4.h **** 
 638:.\Core\Include/core_cm4.h **** #define SCB_CFSR_DACCVIOL_Pos              (SCB_SHCSR_MEMFAULTACT_Pos + 1U)               /*!< SCB 
 639:.\Core\Include/core_cm4.h **** #define SCB_CFSR_DACCVIOL_Msk              (1UL << SCB_CFSR_DACCVIOL_Pos)                 /*!< SCB 
 640:.\Core\Include/core_cm4.h **** 
 641:.\Core\Include/core_cm4.h **** #define SCB_CFSR_IACCVIOL_Pos              (SCB_SHCSR_MEMFAULTACT_Pos + 0U)               /*!< SCB 
 642:.\Core\Include/core_cm4.h **** #define SCB_CFSR_IACCVIOL_Msk              (1UL /*<< SCB_CFSR_IACCVIOL_Pos*/)             /*!< SCB 
 643:.\Core\Include/core_cm4.h **** 
 644:.\Core\Include/core_cm4.h **** /* BusFault Status Register (part of SCB Configurable Fault Status Register) */
 645:.\Core\Include/core_cm4.h **** #define SCB_CFSR_BFARVALID_Pos            (SCB_CFSR_BUSFAULTSR_Pos + 7U)                  /*!< SCB 
 646:.\Core\Include/core_cm4.h **** #define SCB_CFSR_BFARVALID_Msk            (1UL << SCB_CFSR_BFARVALID_Pos)                 /*!< SCB 
 647:.\Core\Include/core_cm4.h **** 
 648:.\Core\Include/core_cm4.h **** #define SCB_CFSR_LSPERR_Pos               (SCB_CFSR_BUSFAULTSR_Pos + 5U)                  /*!< SCB 
 649:.\Core\Include/core_cm4.h **** #define SCB_CFSR_LSPERR_Msk               (1UL << SCB_CFSR_LSPERR_Pos)                    /*!< SCB 
 650:.\Core\Include/core_cm4.h **** 
 651:.\Core\Include/core_cm4.h **** #define SCB_CFSR_STKERR_Pos               (SCB_CFSR_BUSFAULTSR_Pos + 4U)                  /*!< SCB 
 652:.\Core\Include/core_cm4.h **** #define SCB_CFSR_STKERR_Msk               (1UL << SCB_CFSR_STKERR_Pos)                    /*!< SCB 
 653:.\Core\Include/core_cm4.h **** 
 654:.\Core\Include/core_cm4.h **** #define SCB_CFSR_UNSTKERR_Pos             (SCB_CFSR_BUSFAULTSR_Pos + 3U)                  /*!< SCB 
 655:.\Core\Include/core_cm4.h **** #define SCB_CFSR_UNSTKERR_Msk             (1UL << SCB_CFSR_UNSTKERR_Pos)                  /*!< SCB 
 656:.\Core\Include/core_cm4.h **** 
 657:.\Core\Include/core_cm4.h **** #define SCB_CFSR_IMPRECISERR_Pos          (SCB_CFSR_BUSFAULTSR_Pos + 2U)                  /*!< SCB 
 658:.\Core\Include/core_cm4.h **** #define SCB_CFSR_IMPRECISERR_Msk          (1UL << SCB_CFSR_IMPRECISERR_Pos)               /*!< SCB 
 659:.\Core\Include/core_cm4.h **** 
 660:.\Core\Include/core_cm4.h **** #define SCB_CFSR_PRECISERR_Pos            (SCB_CFSR_BUSFAULTSR_Pos + 1U)                  /*!< SCB 
 661:.\Core\Include/core_cm4.h **** #define SCB_CFSR_PRECISERR_Msk            (1UL << SCB_CFSR_PRECISERR_Pos)                 /*!< SCB 
 662:.\Core\Include/core_cm4.h **** 
 663:.\Core\Include/core_cm4.h **** #define SCB_CFSR_IBUSERR_Pos              (SCB_CFSR_BUSFAULTSR_Pos + 0U)                  /*!< SCB 
 664:.\Core\Include/core_cm4.h **** #define SCB_CFSR_IBUSERR_Msk              (1UL << SCB_CFSR_IBUSERR_Pos)                   /*!< SCB 
 665:.\Core\Include/core_cm4.h **** 
 666:.\Core\Include/core_cm4.h **** /* UsageFault Status Register (part of SCB Configurable Fault Status Register) */
 667:.\Core\Include/core_cm4.h **** #define SCB_CFSR_DIVBYZERO_Pos            (SCB_CFSR_USGFAULTSR_Pos + 9U)                  /*!< SCB 
 668:.\Core\Include/core_cm4.h **** #define SCB_CFSR_DIVBYZERO_Msk            (1UL << SCB_CFSR_DIVBYZERO_Pos)                 /*!< SCB 
 669:.\Core\Include/core_cm4.h **** 
 670:.\Core\Include/core_cm4.h **** #define SCB_CFSR_UNALIGNED_Pos            (SCB_CFSR_USGFAULTSR_Pos + 8U)                  /*!< SCB 
 671:.\Core\Include/core_cm4.h **** #define SCB_CFSR_UNALIGNED_Msk            (1UL << SCB_CFSR_UNALIGNED_Pos)                 /*!< SCB 
 672:.\Core\Include/core_cm4.h **** 
 673:.\Core\Include/core_cm4.h **** #define SCB_CFSR_NOCP_Pos                 (SCB_CFSR_USGFAULTSR_Pos + 3U)                  /*!< SCB 
 674:.\Core\Include/core_cm4.h **** #define SCB_CFSR_NOCP_Msk                 (1UL << SCB_CFSR_NOCP_Pos)                      /*!< SCB 
 675:.\Core\Include/core_cm4.h **** 
 676:.\Core\Include/core_cm4.h **** #define SCB_CFSR_INVPC_Pos                (SCB_CFSR_USGFAULTSR_Pos + 2U)                  /*!< SCB 
 677:.\Core\Include/core_cm4.h **** #define SCB_CFSR_INVPC_Msk                (1UL << SCB_CFSR_INVPC_Pos)                     /*!< SCB 
 678:.\Core\Include/core_cm4.h **** 
 679:.\Core\Include/core_cm4.h **** #define SCB_CFSR_INVSTATE_Pos             (SCB_CFSR_USGFAULTSR_Pos + 1U)                  /*!< SCB 
 680:.\Core\Include/core_cm4.h **** #define SCB_CFSR_INVSTATE_Msk             (1UL << SCB_CFSR_INVSTATE_Pos)                  /*!< SCB 
 681:.\Core\Include/core_cm4.h **** 
 682:.\Core\Include/core_cm4.h **** #define SCB_CFSR_UNDEFINSTR_Pos           (SCB_CFSR_USGFAULTSR_Pos + 0U)                  /*!< SCB 
 683:.\Core\Include/core_cm4.h **** #define SCB_CFSR_UNDEFINSTR_Msk           (1UL << SCB_CFSR_UNDEFINSTR_Pos)                /*!< SCB 
 684:.\Core\Include/core_cm4.h **** 
 685:.\Core\Include/core_cm4.h **** /* SCB Hard Fault Status Register Definitions */
 686:.\Core\Include/core_cm4.h **** #define SCB_HFSR_DEBUGEVT_Pos              31U                                            /*!< SCB 
 687:.\Core\Include/core_cm4.h **** #define SCB_HFSR_DEBUGEVT_Msk              (1UL << SCB_HFSR_DEBUGEVT_Pos)                 /*!< SCB 
 688:.\Core\Include/core_cm4.h **** 
 689:.\Core\Include/core_cm4.h **** #define SCB_HFSR_FORCED_Pos                30U                                            /*!< SCB 
 690:.\Core\Include/core_cm4.h **** #define SCB_HFSR_FORCED_Msk                (1UL << SCB_HFSR_FORCED_Pos)                   /*!< SCB 
 691:.\Core\Include/core_cm4.h **** 
 692:.\Core\Include/core_cm4.h **** #define SCB_HFSR_VECTTBL_Pos                1U                                            /*!< SCB 
 693:.\Core\Include/core_cm4.h **** #define SCB_HFSR_VECTTBL_Msk               (1UL << SCB_HFSR_VECTTBL_Pos)                  /*!< SCB 
ARM GAS  C:\Users\Ramon\AppData\Local\Temp\cc2qoQyP.s 			page 21


 694:.\Core\Include/core_cm4.h **** 
 695:.\Core\Include/core_cm4.h **** /* SCB Debug Fault Status Register Definitions */
 696:.\Core\Include/core_cm4.h **** #define SCB_DFSR_EXTERNAL_Pos               4U                                            /*!< SCB 
 697:.\Core\Include/core_cm4.h **** #define SCB_DFSR_EXTERNAL_Msk              (1UL << SCB_DFSR_EXTERNAL_Pos)                 /*!< SCB 
 698:.\Core\Include/core_cm4.h **** 
 699:.\Core\Include/core_cm4.h **** #define SCB_DFSR_VCATCH_Pos                 3U                                            /*!< SCB 
 700:.\Core\Include/core_cm4.h **** #define SCB_DFSR_VCATCH_Msk                (1UL << SCB_DFSR_VCATCH_Pos)                   /*!< SCB 
 701:.\Core\Include/core_cm4.h **** 
 702:.\Core\Include/core_cm4.h **** #define SCB_DFSR_DWTTRAP_Pos                2U                                            /*!< SCB 
 703:.\Core\Include/core_cm4.h **** #define SCB_DFSR_DWTTRAP_Msk               (1UL << SCB_DFSR_DWTTRAP_Pos)                  /*!< SCB 
 704:.\Core\Include/core_cm4.h **** 
 705:.\Core\Include/core_cm4.h **** #define SCB_DFSR_BKPT_Pos                   1U                                            /*!< SCB 
 706:.\Core\Include/core_cm4.h **** #define SCB_DFSR_BKPT_Msk                  (1UL << SCB_DFSR_BKPT_Pos)                     /*!< SCB 
 707:.\Core\Include/core_cm4.h **** 
 708:.\Core\Include/core_cm4.h **** #define SCB_DFSR_HALTED_Pos                 0U                                            /*!< SCB 
 709:.\Core\Include/core_cm4.h **** #define SCB_DFSR_HALTED_Msk                (1UL /*<< SCB_DFSR_HALTED_Pos*/)               /*!< SCB 
 710:.\Core\Include/core_cm4.h **** 
 711:.\Core\Include/core_cm4.h **** /*@} end of group CMSIS_SCB */
 712:.\Core\Include/core_cm4.h **** 
 713:.\Core\Include/core_cm4.h **** 
 714:.\Core\Include/core_cm4.h **** /**
 715:.\Core\Include/core_cm4.h ****   \ingroup  CMSIS_core_register
 716:.\Core\Include/core_cm4.h ****   \defgroup CMSIS_SCnSCB System Controls not in SCB (SCnSCB)
 717:.\Core\Include/core_cm4.h ****   \brief    Type definitions for the System Control and ID Register not in the SCB
 718:.\Core\Include/core_cm4.h ****   @{
 719:.\Core\Include/core_cm4.h ****  */
 720:.\Core\Include/core_cm4.h **** 
 721:.\Core\Include/core_cm4.h **** /**
 722:.\Core\Include/core_cm4.h ****   \brief  Structure type to access the System Control and ID Register not in the SCB.
 723:.\Core\Include/core_cm4.h ****  */
 724:.\Core\Include/core_cm4.h **** typedef struct
 725:.\Core\Include/core_cm4.h **** {
 726:.\Core\Include/core_cm4.h ****         uint32_t RESERVED0[1U];
 727:.\Core\Include/core_cm4.h ****   __IM  uint32_t ICTR;                   /*!< Offset: 0x004 (R/ )  Interrupt Controller Type Regist
 728:.\Core\Include/core_cm4.h ****   __IOM uint32_t ACTLR;                  /*!< Offset: 0x008 (R/W)  Auxiliary Control Register */
 729:.\Core\Include/core_cm4.h **** } SCnSCB_Type;
 730:.\Core\Include/core_cm4.h **** 
 731:.\Core\Include/core_cm4.h **** /* Interrupt Controller Type Register Definitions */
 732:.\Core\Include/core_cm4.h **** #define SCnSCB_ICTR_INTLINESNUM_Pos         0U                                         /*!< ICTR: I
 733:.\Core\Include/core_cm4.h **** #define SCnSCB_ICTR_INTLINESNUM_Msk        (0xFUL /*<< SCnSCB_ICTR_INTLINESNUM_Pos*/)  /*!< ICTR: I
 734:.\Core\Include/core_cm4.h **** 
 735:.\Core\Include/core_cm4.h **** /* Auxiliary Control Register Definitions */
 736:.\Core\Include/core_cm4.h **** #define SCnSCB_ACTLR_DISOOFP_Pos            9U                                         /*!< ACTLR: 
 737:.\Core\Include/core_cm4.h **** #define SCnSCB_ACTLR_DISOOFP_Msk           (1UL << SCnSCB_ACTLR_DISOOFP_Pos)           /*!< ACTLR: 
 738:.\Core\Include/core_cm4.h **** 
 739:.\Core\Include/core_cm4.h **** #define SCnSCB_ACTLR_DISFPCA_Pos            8U                                         /*!< ACTLR: 
 740:.\Core\Include/core_cm4.h **** #define SCnSCB_ACTLR_DISFPCA_Msk           (1UL << SCnSCB_ACTLR_DISFPCA_Pos)           /*!< ACTLR: 
 741:.\Core\Include/core_cm4.h **** 
 742:.\Core\Include/core_cm4.h **** #define SCnSCB_ACTLR_DISFOLD_Pos            2U                                         /*!< ACTLR: 
 743:.\Core\Include/core_cm4.h **** #define SCnSCB_ACTLR_DISFOLD_Msk           (1UL << SCnSCB_ACTLR_DISFOLD_Pos)           /*!< ACTLR: 
 744:.\Core\Include/core_cm4.h **** 
 745:.\Core\Include/core_cm4.h **** #define SCnSCB_ACTLR_DISDEFWBUF_Pos         1U                                         /*!< ACTLR: 
 746:.\Core\Include/core_cm4.h **** #define SCnSCB_ACTLR_DISDEFWBUF_Msk        (1UL << SCnSCB_ACTLR_DISDEFWBUF_Pos)        /*!< ACTLR: 
 747:.\Core\Include/core_cm4.h **** 
 748:.\Core\Include/core_cm4.h **** #define SCnSCB_ACTLR_DISMCYCINT_Pos         0U                                         /*!< ACTLR: 
 749:.\Core\Include/core_cm4.h **** #define SCnSCB_ACTLR_DISMCYCINT_Msk        (1UL /*<< SCnSCB_ACTLR_DISMCYCINT_Pos*/)    /*!< ACTLR: 
 750:.\Core\Include/core_cm4.h **** 
ARM GAS  C:\Users\Ramon\AppData\Local\Temp\cc2qoQyP.s 			page 22


 751:.\Core\Include/core_cm4.h **** /*@} end of group CMSIS_SCnotSCB */
 752:.\Core\Include/core_cm4.h **** 
 753:.\Core\Include/core_cm4.h **** 
 754:.\Core\Include/core_cm4.h **** /**
 755:.\Core\Include/core_cm4.h ****   \ingroup  CMSIS_core_register
 756:.\Core\Include/core_cm4.h ****   \defgroup CMSIS_SysTick     System Tick Timer (SysTick)
 757:.\Core\Include/core_cm4.h ****   \brief    Type definitions for the System Timer Registers.
 758:.\Core\Include/core_cm4.h ****   @{
 759:.\Core\Include/core_cm4.h ****  */
 760:.\Core\Include/core_cm4.h **** 
 761:.\Core\Include/core_cm4.h **** /**
 762:.\Core\Include/core_cm4.h ****   \brief  Structure type to access the System Timer (SysTick).
 763:.\Core\Include/core_cm4.h ****  */
 764:.\Core\Include/core_cm4.h **** typedef struct
 765:.\Core\Include/core_cm4.h **** {
 766:.\Core\Include/core_cm4.h ****   __IOM uint32_t CTRL;                   /*!< Offset: 0x000 (R/W)  SysTick Control and Status Regis
 767:.\Core\Include/core_cm4.h ****   __IOM uint32_t LOAD;                   /*!< Offset: 0x004 (R/W)  SysTick Reload Value Register */
 768:.\Core\Include/core_cm4.h ****   __IOM uint32_t VAL;                    /*!< Offset: 0x008 (R/W)  SysTick Current Value Register *
 769:.\Core\Include/core_cm4.h ****   __IM  uint32_t CALIB;                  /*!< Offset: 0x00C (R/ )  SysTick Calibration Register */
 770:.\Core\Include/core_cm4.h **** } SysTick_Type;
 771:.\Core\Include/core_cm4.h **** 
 772:.\Core\Include/core_cm4.h **** /* SysTick Control / Status Register Definitions */
 773:.\Core\Include/core_cm4.h **** #define SysTick_CTRL_COUNTFLAG_Pos         16U                                            /*!< SysT
 774:.\Core\Include/core_cm4.h **** #define SysTick_CTRL_COUNTFLAG_Msk         (1UL << SysTick_CTRL_COUNTFLAG_Pos)            /*!< SysT
 775:.\Core\Include/core_cm4.h **** 
 776:.\Core\Include/core_cm4.h **** #define SysTick_CTRL_CLKSOURCE_Pos          2U                                            /*!< SysT
 777:.\Core\Include/core_cm4.h **** #define SysTick_CTRL_CLKSOURCE_Msk         (1UL << SysTick_CTRL_CLKSOURCE_Pos)            /*!< SysT
 778:.\Core\Include/core_cm4.h **** 
 779:.\Core\Include/core_cm4.h **** #define SysTick_CTRL_TICKINT_Pos            1U                                            /*!< SysT
 780:.\Core\Include/core_cm4.h **** #define SysTick_CTRL_TICKINT_Msk           (1UL << SysTick_CTRL_TICKINT_Pos)              /*!< SysT
 781:.\Core\Include/core_cm4.h **** 
 782:.\Core\Include/core_cm4.h **** #define SysTick_CTRL_ENABLE_Pos             0U                                            /*!< SysT
 783:.\Core\Include/core_cm4.h **** #define SysTick_CTRL_ENABLE_Msk            (1UL /*<< SysTick_CTRL_ENABLE_Pos*/)           /*!< SysT
 784:.\Core\Include/core_cm4.h **** 
 785:.\Core\Include/core_cm4.h **** /* SysTick Reload Register Definitions */
 786:.\Core\Include/core_cm4.h **** #define SysTick_LOAD_RELOAD_Pos             0U                                            /*!< SysT
 787:.\Core\Include/core_cm4.h **** #define SysTick_LOAD_RELOAD_Msk            (0xFFFFFFUL /*<< SysTick_LOAD_RELOAD_Pos*/)    /*!< SysT
 788:.\Core\Include/core_cm4.h **** 
 789:.\Core\Include/core_cm4.h **** /* SysTick Current Register Definitions */
 790:.\Core\Include/core_cm4.h **** #define SysTick_VAL_CURRENT_Pos             0U                                            /*!< SysT
 791:.\Core\Include/core_cm4.h **** #define SysTick_VAL_CURRENT_Msk            (0xFFFFFFUL /*<< SysTick_VAL_CURRENT_Pos*/)    /*!< SysT
 792:.\Core\Include/core_cm4.h **** 
 793:.\Core\Include/core_cm4.h **** /* SysTick Calibration Register Definitions */
 794:.\Core\Include/core_cm4.h **** #define SysTick_CALIB_NOREF_Pos            31U                                            /*!< SysT
 795:.\Core\Include/core_cm4.h **** #define SysTick_CALIB_NOREF_Msk            (1UL << SysTick_CALIB_NOREF_Pos)               /*!< SysT
 796:.\Core\Include/core_cm4.h **** 
 797:.\Core\Include/core_cm4.h **** #define SysTick_CALIB_SKEW_Pos             30U                                            /*!< SysT
 798:.\Core\Include/core_cm4.h **** #define SysTick_CALIB_SKEW_Msk             (1UL << SysTick_CALIB_SKEW_Pos)                /*!< SysT
 799:.\Core\Include/core_cm4.h **** 
 800:.\Core\Include/core_cm4.h **** #define SysTick_CALIB_TENMS_Pos             0U                                            /*!< SysT
 801:.\Core\Include/core_cm4.h **** #define SysTick_CALIB_TENMS_Msk            (0xFFFFFFUL /*<< SysTick_CALIB_TENMS_Pos*/)    /*!< SysT
 802:.\Core\Include/core_cm4.h **** 
 803:.\Core\Include/core_cm4.h **** /*@} end of group CMSIS_SysTick */
 804:.\Core\Include/core_cm4.h **** 
 805:.\Core\Include/core_cm4.h **** 
 806:.\Core\Include/core_cm4.h **** /**
 807:.\Core\Include/core_cm4.h ****   \ingroup  CMSIS_core_register
ARM GAS  C:\Users\Ramon\AppData\Local\Temp\cc2qoQyP.s 			page 23


 808:.\Core\Include/core_cm4.h ****   \defgroup CMSIS_ITM     Instrumentation Trace Macrocell (ITM)
 809:.\Core\Include/core_cm4.h ****   \brief    Type definitions for the Instrumentation Trace Macrocell (ITM)
 810:.\Core\Include/core_cm4.h ****   @{
 811:.\Core\Include/core_cm4.h ****  */
 812:.\Core\Include/core_cm4.h **** 
 813:.\Core\Include/core_cm4.h **** /**
 814:.\Core\Include/core_cm4.h ****   \brief  Structure type to access the Instrumentation Trace Macrocell Register (ITM).
 815:.\Core\Include/core_cm4.h ****  */
 816:.\Core\Include/core_cm4.h **** typedef struct
 817:.\Core\Include/core_cm4.h **** {
 818:.\Core\Include/core_cm4.h ****   __OM  union
 819:.\Core\Include/core_cm4.h ****   {
 820:.\Core\Include/core_cm4.h ****     __OM  uint8_t    u8;                 /*!< Offset: 0x000 ( /W)  ITM Stimulus Port 8-bit */
 821:.\Core\Include/core_cm4.h ****     __OM  uint16_t   u16;                /*!< Offset: 0x000 ( /W)  ITM Stimulus Port 16-bit */
 822:.\Core\Include/core_cm4.h ****     __OM  uint32_t   u32;                /*!< Offset: 0x000 ( /W)  ITM Stimulus Port 32-bit */
 823:.\Core\Include/core_cm4.h ****   }  PORT [32U];                         /*!< Offset: 0x000 ( /W)  ITM Stimulus Port Registers */
 824:.\Core\Include/core_cm4.h ****         uint32_t RESERVED0[864U];
 825:.\Core\Include/core_cm4.h ****   __IOM uint32_t TER;                    /*!< Offset: 0xE00 (R/W)  ITM Trace Enable Register */
 826:.\Core\Include/core_cm4.h ****         uint32_t RESERVED1[15U];
 827:.\Core\Include/core_cm4.h ****   __IOM uint32_t TPR;                    /*!< Offset: 0xE40 (R/W)  ITM Trace Privilege Register */
 828:.\Core\Include/core_cm4.h ****         uint32_t RESERVED2[15U];
 829:.\Core\Include/core_cm4.h ****   __IOM uint32_t TCR;                    /*!< Offset: 0xE80 (R/W)  ITM Trace Control Register */
 830:.\Core\Include/core_cm4.h ****         uint32_t RESERVED3[32U];
 831:.\Core\Include/core_cm4.h ****         uint32_t RESERVED4[43U];
 832:.\Core\Include/core_cm4.h ****   __OM  uint32_t LAR;                    /*!< Offset: 0xFB0 ( /W)  ITM Lock Access Register */
 833:.\Core\Include/core_cm4.h ****   __IM  uint32_t LSR;                    /*!< Offset: 0xFB4 (R/ )  ITM Lock Status Register */
 834:.\Core\Include/core_cm4.h ****         uint32_t RESERVED5[6U];
 835:.\Core\Include/core_cm4.h ****   __IM  uint32_t PID4;                   /*!< Offset: 0xFD0 (R/ )  ITM Peripheral Identification Re
 836:.\Core\Include/core_cm4.h ****   __IM  uint32_t PID5;                   /*!< Offset: 0xFD4 (R/ )  ITM Peripheral Identification Re
 837:.\Core\Include/core_cm4.h ****   __IM  uint32_t PID6;                   /*!< Offset: 0xFD8 (R/ )  ITM Peripheral Identification Re
 838:.\Core\Include/core_cm4.h ****   __IM  uint32_t PID7;                   /*!< Offset: 0xFDC (R/ )  ITM Peripheral Identification Re
 839:.\Core\Include/core_cm4.h ****   __IM  uint32_t PID0;                   /*!< Offset: 0xFE0 (R/ )  ITM Peripheral Identification Re
 840:.\Core\Include/core_cm4.h ****   __IM  uint32_t PID1;                   /*!< Offset: 0xFE4 (R/ )  ITM Peripheral Identification Re
 841:.\Core\Include/core_cm4.h ****   __IM  uint32_t PID2;                   /*!< Offset: 0xFE8 (R/ )  ITM Peripheral Identification Re
 842:.\Core\Include/core_cm4.h ****   __IM  uint32_t PID3;                   /*!< Offset: 0xFEC (R/ )  ITM Peripheral Identification Re
 843:.\Core\Include/core_cm4.h ****   __IM  uint32_t CID0;                   /*!< Offset: 0xFF0 (R/ )  ITM Component  Identification Re
 844:.\Core\Include/core_cm4.h ****   __IM  uint32_t CID1;                   /*!< Offset: 0xFF4 (R/ )  ITM Component  Identification Re
 845:.\Core\Include/core_cm4.h ****   __IM  uint32_t CID2;                   /*!< Offset: 0xFF8 (R/ )  ITM Component  Identification Re
 846:.\Core\Include/core_cm4.h ****   __IM  uint32_t CID3;                   /*!< Offset: 0xFFC (R/ )  ITM Component  Identification Re
 847:.\Core\Include/core_cm4.h **** } ITM_Type;
 848:.\Core\Include/core_cm4.h **** 
 849:.\Core\Include/core_cm4.h **** /* ITM Trace Privilege Register Definitions */
 850:.\Core\Include/core_cm4.h **** #define ITM_TPR_PRIVMASK_Pos                0U                                            /*!< ITM 
 851:.\Core\Include/core_cm4.h **** #define ITM_TPR_PRIVMASK_Msk               (0xFFFFFFFFUL /*<< ITM_TPR_PRIVMASK_Pos*/)     /*!< ITM 
 852:.\Core\Include/core_cm4.h **** 
 853:.\Core\Include/core_cm4.h **** /* ITM Trace Control Register Definitions */
 854:.\Core\Include/core_cm4.h **** #define ITM_TCR_BUSY_Pos                   23U                                            /*!< ITM 
 855:.\Core\Include/core_cm4.h **** #define ITM_TCR_BUSY_Msk                   (1UL << ITM_TCR_BUSY_Pos)                      /*!< ITM 
 856:.\Core\Include/core_cm4.h **** 
 857:.\Core\Include/core_cm4.h **** #define ITM_TCR_TraceBusID_Pos             16U                                            /*!< ITM 
 858:.\Core\Include/core_cm4.h **** #define ITM_TCR_TraceBusID_Msk             (0x7FUL << ITM_TCR_TraceBusID_Pos)             /*!< ITM 
 859:.\Core\Include/core_cm4.h **** 
 860:.\Core\Include/core_cm4.h **** #define ITM_TCR_GTSFREQ_Pos                10U                                            /*!< ITM 
 861:.\Core\Include/core_cm4.h **** #define ITM_TCR_GTSFREQ_Msk                (3UL << ITM_TCR_GTSFREQ_Pos)                   /*!< ITM 
 862:.\Core\Include/core_cm4.h **** 
 863:.\Core\Include/core_cm4.h **** #define ITM_TCR_TSPrescale_Pos              8U                                            /*!< ITM 
 864:.\Core\Include/core_cm4.h **** #define ITM_TCR_TSPrescale_Msk             (3UL << ITM_TCR_TSPrescale_Pos)                /*!< ITM 
ARM GAS  C:\Users\Ramon\AppData\Local\Temp\cc2qoQyP.s 			page 24


 865:.\Core\Include/core_cm4.h **** 
 866:.\Core\Include/core_cm4.h **** #define ITM_TCR_SWOENA_Pos                  4U                                            /*!< ITM 
 867:.\Core\Include/core_cm4.h **** #define ITM_TCR_SWOENA_Msk                 (1UL << ITM_TCR_SWOENA_Pos)                    /*!< ITM 
 868:.\Core\Include/core_cm4.h **** 
 869:.\Core\Include/core_cm4.h **** #define ITM_TCR_DWTENA_Pos                  3U                                            /*!< ITM 
 870:.\Core\Include/core_cm4.h **** #define ITM_TCR_DWTENA_Msk                 (1UL << ITM_TCR_DWTENA_Pos)                    /*!< ITM 
 871:.\Core\Include/core_cm4.h **** 
 872:.\Core\Include/core_cm4.h **** #define ITM_TCR_SYNCENA_Pos                 2U                                            /*!< ITM 
 873:.\Core\Include/core_cm4.h **** #define ITM_TCR_SYNCENA_Msk                (1UL << ITM_TCR_SYNCENA_Pos)                   /*!< ITM 
 874:.\Core\Include/core_cm4.h **** 
 875:.\Core\Include/core_cm4.h **** #define ITM_TCR_TSENA_Pos                   1U                                            /*!< ITM 
 876:.\Core\Include/core_cm4.h **** #define ITM_TCR_TSENA_Msk                  (1UL << ITM_TCR_TSENA_Pos)                     /*!< ITM 
 877:.\Core\Include/core_cm4.h **** 
 878:.\Core\Include/core_cm4.h **** #define ITM_TCR_ITMENA_Pos                  0U                                            /*!< ITM 
 879:.\Core\Include/core_cm4.h **** #define ITM_TCR_ITMENA_Msk                 (1UL /*<< ITM_TCR_ITMENA_Pos*/)                /*!< ITM 
 880:.\Core\Include/core_cm4.h **** 
 881:.\Core\Include/core_cm4.h **** /* ITM Lock Status Register Definitions */
 882:.\Core\Include/core_cm4.h **** #define ITM_LSR_ByteAcc_Pos                 2U                                            /*!< ITM 
 883:.\Core\Include/core_cm4.h **** #define ITM_LSR_ByteAcc_Msk                (1UL << ITM_LSR_ByteAcc_Pos)                   /*!< ITM 
 884:.\Core\Include/core_cm4.h **** 
 885:.\Core\Include/core_cm4.h **** #define ITM_LSR_Access_Pos                  1U                                            /*!< ITM 
 886:.\Core\Include/core_cm4.h **** #define ITM_LSR_Access_Msk                 (1UL << ITM_LSR_Access_Pos)                    /*!< ITM 
 887:.\Core\Include/core_cm4.h **** 
 888:.\Core\Include/core_cm4.h **** #define ITM_LSR_Present_Pos                 0U                                            /*!< ITM 
 889:.\Core\Include/core_cm4.h **** #define ITM_LSR_Present_Msk                (1UL /*<< ITM_LSR_Present_Pos*/)               /*!< ITM 
 890:.\Core\Include/core_cm4.h **** 
 891:.\Core\Include/core_cm4.h **** /*@}*/ /* end of group CMSIS_ITM */
 892:.\Core\Include/core_cm4.h **** 
 893:.\Core\Include/core_cm4.h **** 
 894:.\Core\Include/core_cm4.h **** /**
 895:.\Core\Include/core_cm4.h ****   \ingroup  CMSIS_core_register
 896:.\Core\Include/core_cm4.h ****   \defgroup CMSIS_DWT     Data Watchpoint and Trace (DWT)
 897:.\Core\Include/core_cm4.h ****   \brief    Type definitions for the Data Watchpoint and Trace (DWT)
 898:.\Core\Include/core_cm4.h ****   @{
 899:.\Core\Include/core_cm4.h ****  */
 900:.\Core\Include/core_cm4.h **** 
 901:.\Core\Include/core_cm4.h **** /**
 902:.\Core\Include/core_cm4.h ****   \brief  Structure type to access the Data Watchpoint and Trace Register (DWT).
 903:.\Core\Include/core_cm4.h ****  */
 904:.\Core\Include/core_cm4.h **** typedef struct
 905:.\Core\Include/core_cm4.h **** {
 906:.\Core\Include/core_cm4.h ****   __IOM uint32_t CTRL;                   /*!< Offset: 0x000 (R/W)  Control Register */
 907:.\Core\Include/core_cm4.h ****   __IOM uint32_t CYCCNT;                 /*!< Offset: 0x004 (R/W)  Cycle Count Register */
 908:.\Core\Include/core_cm4.h ****   __IOM uint32_t CPICNT;                 /*!< Offset: 0x008 (R/W)  CPI Count Register */
 909:.\Core\Include/core_cm4.h ****   __IOM uint32_t EXCCNT;                 /*!< Offset: 0x00C (R/W)  Exception Overhead Count Registe
 910:.\Core\Include/core_cm4.h ****   __IOM uint32_t SLEEPCNT;               /*!< Offset: 0x010 (R/W)  Sleep Count Register */
 911:.\Core\Include/core_cm4.h ****   __IOM uint32_t LSUCNT;                 /*!< Offset: 0x014 (R/W)  LSU Count Register */
 912:.\Core\Include/core_cm4.h ****   __IOM uint32_t FOLDCNT;                /*!< Offset: 0x018 (R/W)  Folded-instruction Count Registe
 913:.\Core\Include/core_cm4.h ****   __IM  uint32_t PCSR;                   /*!< Offset: 0x01C (R/ )  Program Counter Sample Register 
 914:.\Core\Include/core_cm4.h ****   __IOM uint32_t COMP0;                  /*!< Offset: 0x020 (R/W)  Comparator Register 0 */
 915:.\Core\Include/core_cm4.h ****   __IOM uint32_t MASK0;                  /*!< Offset: 0x024 (R/W)  Mask Register 0 */
 916:.\Core\Include/core_cm4.h ****   __IOM uint32_t FUNCTION0;              /*!< Offset: 0x028 (R/W)  Function Register 0 */
 917:.\Core\Include/core_cm4.h ****         uint32_t RESERVED0[1U];
 918:.\Core\Include/core_cm4.h ****   __IOM uint32_t COMP1;                  /*!< Offset: 0x030 (R/W)  Comparator Register 1 */
 919:.\Core\Include/core_cm4.h ****   __IOM uint32_t MASK1;                  /*!< Offset: 0x034 (R/W)  Mask Register 1 */
 920:.\Core\Include/core_cm4.h ****   __IOM uint32_t FUNCTION1;              /*!< Offset: 0x038 (R/W)  Function Register 1 */
 921:.\Core\Include/core_cm4.h ****         uint32_t RESERVED1[1U];
ARM GAS  C:\Users\Ramon\AppData\Local\Temp\cc2qoQyP.s 			page 25


 922:.\Core\Include/core_cm4.h ****   __IOM uint32_t COMP2;                  /*!< Offset: 0x040 (R/W)  Comparator Register 2 */
 923:.\Core\Include/core_cm4.h ****   __IOM uint32_t MASK2;                  /*!< Offset: 0x044 (R/W)  Mask Register 2 */
 924:.\Core\Include/core_cm4.h ****   __IOM uint32_t FUNCTION2;              /*!< Offset: 0x048 (R/W)  Function Register 2 */
 925:.\Core\Include/core_cm4.h ****         uint32_t RESERVED2[1U];
 926:.\Core\Include/core_cm4.h ****   __IOM uint32_t COMP3;                  /*!< Offset: 0x050 (R/W)  Comparator Register 3 */
 927:.\Core\Include/core_cm4.h ****   __IOM uint32_t MASK3;                  /*!< Offset: 0x054 (R/W)  Mask Register 3 */
 928:.\Core\Include/core_cm4.h ****   __IOM uint32_t FUNCTION3;              /*!< Offset: 0x058 (R/W)  Function Register 3 */
 929:.\Core\Include/core_cm4.h **** } DWT_Type;
 930:.\Core\Include/core_cm4.h **** 
 931:.\Core\Include/core_cm4.h **** /* DWT Control Register Definitions */
 932:.\Core\Include/core_cm4.h **** #define DWT_CTRL_NUMCOMP_Pos               28U                                         /*!< DWT CTR
 933:.\Core\Include/core_cm4.h **** #define DWT_CTRL_NUMCOMP_Msk               (0xFUL << DWT_CTRL_NUMCOMP_Pos)             /*!< DWT CTR
 934:.\Core\Include/core_cm4.h **** 
 935:.\Core\Include/core_cm4.h **** #define DWT_CTRL_NOTRCPKT_Pos              27U                                         /*!< DWT CTR
 936:.\Core\Include/core_cm4.h **** #define DWT_CTRL_NOTRCPKT_Msk              (0x1UL << DWT_CTRL_NOTRCPKT_Pos)            /*!< DWT CTR
 937:.\Core\Include/core_cm4.h **** 
 938:.\Core\Include/core_cm4.h **** #define DWT_CTRL_NOEXTTRIG_Pos             26U                                         /*!< DWT CTR
 939:.\Core\Include/core_cm4.h **** #define DWT_CTRL_NOEXTTRIG_Msk             (0x1UL << DWT_CTRL_NOEXTTRIG_Pos)           /*!< DWT CTR
 940:.\Core\Include/core_cm4.h **** 
 941:.\Core\Include/core_cm4.h **** #define DWT_CTRL_NOCYCCNT_Pos              25U                                         /*!< DWT CTR
 942:.\Core\Include/core_cm4.h **** #define DWT_CTRL_NOCYCCNT_Msk              (0x1UL << DWT_CTRL_NOCYCCNT_Pos)            /*!< DWT CTR
 943:.\Core\Include/core_cm4.h **** 
 944:.\Core\Include/core_cm4.h **** #define DWT_CTRL_NOPRFCNT_Pos              24U                                         /*!< DWT CTR
 945:.\Core\Include/core_cm4.h **** #define DWT_CTRL_NOPRFCNT_Msk              (0x1UL << DWT_CTRL_NOPRFCNT_Pos)            /*!< DWT CTR
 946:.\Core\Include/core_cm4.h **** 
 947:.\Core\Include/core_cm4.h **** #define DWT_CTRL_CYCEVTENA_Pos             22U                                         /*!< DWT CTR
 948:.\Core\Include/core_cm4.h **** #define DWT_CTRL_CYCEVTENA_Msk             (0x1UL << DWT_CTRL_CYCEVTENA_Pos)           /*!< DWT CTR
 949:.\Core\Include/core_cm4.h **** 
 950:.\Core\Include/core_cm4.h **** #define DWT_CTRL_FOLDEVTENA_Pos            21U                                         /*!< DWT CTR
 951:.\Core\Include/core_cm4.h **** #define DWT_CTRL_FOLDEVTENA_Msk            (0x1UL << DWT_CTRL_FOLDEVTENA_Pos)          /*!< DWT CTR
 952:.\Core\Include/core_cm4.h **** 
 953:.\Core\Include/core_cm4.h **** #define DWT_CTRL_LSUEVTENA_Pos             20U                                         /*!< DWT CTR
 954:.\Core\Include/core_cm4.h **** #define DWT_CTRL_LSUEVTENA_Msk             (0x1UL << DWT_CTRL_LSUEVTENA_Pos)           /*!< DWT CTR
 955:.\Core\Include/core_cm4.h **** 
 956:.\Core\Include/core_cm4.h **** #define DWT_CTRL_SLEEPEVTENA_Pos           19U                                         /*!< DWT CTR
 957:.\Core\Include/core_cm4.h **** #define DWT_CTRL_SLEEPEVTENA_Msk           (0x1UL << DWT_CTRL_SLEEPEVTENA_Pos)         /*!< DWT CTR
 958:.\Core\Include/core_cm4.h **** 
 959:.\Core\Include/core_cm4.h **** #define DWT_CTRL_EXCEVTENA_Pos             18U                                         /*!< DWT CTR
 960:.\Core\Include/core_cm4.h **** #define DWT_CTRL_EXCEVTENA_Msk             (0x1UL << DWT_CTRL_EXCEVTENA_Pos)           /*!< DWT CTR
 961:.\Core\Include/core_cm4.h **** 
 962:.\Core\Include/core_cm4.h **** #define DWT_CTRL_CPIEVTENA_Pos             17U                                         /*!< DWT CTR
 963:.\Core\Include/core_cm4.h **** #define DWT_CTRL_CPIEVTENA_Msk             (0x1UL << DWT_CTRL_CPIEVTENA_Pos)           /*!< DWT CTR
 964:.\Core\Include/core_cm4.h **** 
 965:.\Core\Include/core_cm4.h **** #define DWT_CTRL_EXCTRCENA_Pos             16U                                         /*!< DWT CTR
 966:.\Core\Include/core_cm4.h **** #define DWT_CTRL_EXCTRCENA_Msk             (0x1UL << DWT_CTRL_EXCTRCENA_Pos)           /*!< DWT CTR
 967:.\Core\Include/core_cm4.h **** 
 968:.\Core\Include/core_cm4.h **** #define DWT_CTRL_PCSAMPLENA_Pos            12U                                         /*!< DWT CTR
 969:.\Core\Include/core_cm4.h **** #define DWT_CTRL_PCSAMPLENA_Msk            (0x1UL << DWT_CTRL_PCSAMPLENA_Pos)          /*!< DWT CTR
 970:.\Core\Include/core_cm4.h **** 
 971:.\Core\Include/core_cm4.h **** #define DWT_CTRL_SYNCTAP_Pos               10U                                         /*!< DWT CTR
 972:.\Core\Include/core_cm4.h **** #define DWT_CTRL_SYNCTAP_Msk               (0x3UL << DWT_CTRL_SYNCTAP_Pos)             /*!< DWT CTR
 973:.\Core\Include/core_cm4.h **** 
 974:.\Core\Include/core_cm4.h **** #define DWT_CTRL_CYCTAP_Pos                 9U                                         /*!< DWT CTR
 975:.\Core\Include/core_cm4.h **** #define DWT_CTRL_CYCTAP_Msk                (0x1UL << DWT_CTRL_CYCTAP_Pos)              /*!< DWT CTR
 976:.\Core\Include/core_cm4.h **** 
 977:.\Core\Include/core_cm4.h **** #define DWT_CTRL_POSTINIT_Pos               5U                                         /*!< DWT CTR
 978:.\Core\Include/core_cm4.h **** #define DWT_CTRL_POSTINIT_Msk              (0xFUL << DWT_CTRL_POSTINIT_Pos)            /*!< DWT CTR
ARM GAS  C:\Users\Ramon\AppData\Local\Temp\cc2qoQyP.s 			page 26


 979:.\Core\Include/core_cm4.h **** 
 980:.\Core\Include/core_cm4.h **** #define DWT_CTRL_POSTPRESET_Pos             1U                                         /*!< DWT CTR
 981:.\Core\Include/core_cm4.h **** #define DWT_CTRL_POSTPRESET_Msk            (0xFUL << DWT_CTRL_POSTPRESET_Pos)          /*!< DWT CTR
 982:.\Core\Include/core_cm4.h **** 
 983:.\Core\Include/core_cm4.h **** #define DWT_CTRL_CYCCNTENA_Pos              0U                                         /*!< DWT CTR
 984:.\Core\Include/core_cm4.h **** #define DWT_CTRL_CYCCNTENA_Msk             (0x1UL /*<< DWT_CTRL_CYCCNTENA_Pos*/)       /*!< DWT CTR
 985:.\Core\Include/core_cm4.h **** 
 986:.\Core\Include/core_cm4.h **** /* DWT CPI Count Register Definitions */
 987:.\Core\Include/core_cm4.h **** #define DWT_CPICNT_CPICNT_Pos               0U                                         /*!< DWT CPI
 988:.\Core\Include/core_cm4.h **** #define DWT_CPICNT_CPICNT_Msk              (0xFFUL /*<< DWT_CPICNT_CPICNT_Pos*/)       /*!< DWT CPI
 989:.\Core\Include/core_cm4.h **** 
 990:.\Core\Include/core_cm4.h **** /* DWT Exception Overhead Count Register Definitions */
 991:.\Core\Include/core_cm4.h **** #define DWT_EXCCNT_EXCCNT_Pos               0U                                         /*!< DWT EXC
 992:.\Core\Include/core_cm4.h **** #define DWT_EXCCNT_EXCCNT_Msk              (0xFFUL /*<< DWT_EXCCNT_EXCCNT_Pos*/)       /*!< DWT EXC
 993:.\Core\Include/core_cm4.h **** 
 994:.\Core\Include/core_cm4.h **** /* DWT Sleep Count Register Definitions */
 995:.\Core\Include/core_cm4.h **** #define DWT_SLEEPCNT_SLEEPCNT_Pos           0U                                         /*!< DWT SLE
 996:.\Core\Include/core_cm4.h **** #define DWT_SLEEPCNT_SLEEPCNT_Msk          (0xFFUL /*<< DWT_SLEEPCNT_SLEEPCNT_Pos*/)   /*!< DWT SLE
 997:.\Core\Include/core_cm4.h **** 
 998:.\Core\Include/core_cm4.h **** /* DWT LSU Count Register Definitions */
 999:.\Core\Include/core_cm4.h **** #define DWT_LSUCNT_LSUCNT_Pos               0U                                         /*!< DWT LSU
1000:.\Core\Include/core_cm4.h **** #define DWT_LSUCNT_LSUCNT_Msk              (0xFFUL /*<< DWT_LSUCNT_LSUCNT_Pos*/)       /*!< DWT LSU
1001:.\Core\Include/core_cm4.h **** 
1002:.\Core\Include/core_cm4.h **** /* DWT Folded-instruction Count Register Definitions */
1003:.\Core\Include/core_cm4.h **** #define DWT_FOLDCNT_FOLDCNT_Pos             0U                                         /*!< DWT FOL
1004:.\Core\Include/core_cm4.h **** #define DWT_FOLDCNT_FOLDCNT_Msk            (0xFFUL /*<< DWT_FOLDCNT_FOLDCNT_Pos*/)     /*!< DWT FOL
1005:.\Core\Include/core_cm4.h **** 
1006:.\Core\Include/core_cm4.h **** /* DWT Comparator Mask Register Definitions */
1007:.\Core\Include/core_cm4.h **** #define DWT_MASK_MASK_Pos                   0U                                         /*!< DWT MAS
1008:.\Core\Include/core_cm4.h **** #define DWT_MASK_MASK_Msk                  (0x1FUL /*<< DWT_MASK_MASK_Pos*/)           /*!< DWT MAS
1009:.\Core\Include/core_cm4.h **** 
1010:.\Core\Include/core_cm4.h **** /* DWT Comparator Function Register Definitions */
1011:.\Core\Include/core_cm4.h **** #define DWT_FUNCTION_MATCHED_Pos           24U                                         /*!< DWT FUN
1012:.\Core\Include/core_cm4.h **** #define DWT_FUNCTION_MATCHED_Msk           (0x1UL << DWT_FUNCTION_MATCHED_Pos)         /*!< DWT FUN
1013:.\Core\Include/core_cm4.h **** 
1014:.\Core\Include/core_cm4.h **** #define DWT_FUNCTION_DATAVADDR1_Pos        16U                                         /*!< DWT FUN
1015:.\Core\Include/core_cm4.h **** #define DWT_FUNCTION_DATAVADDR1_Msk        (0xFUL << DWT_FUNCTION_DATAVADDR1_Pos)      /*!< DWT FUN
1016:.\Core\Include/core_cm4.h **** 
1017:.\Core\Include/core_cm4.h **** #define DWT_FUNCTION_DATAVADDR0_Pos        12U                                         /*!< DWT FUN
1018:.\Core\Include/core_cm4.h **** #define DWT_FUNCTION_DATAVADDR0_Msk        (0xFUL << DWT_FUNCTION_DATAVADDR0_Pos)      /*!< DWT FUN
1019:.\Core\Include/core_cm4.h **** 
1020:.\Core\Include/core_cm4.h **** #define DWT_FUNCTION_DATAVSIZE_Pos         10U                                         /*!< DWT FUN
1021:.\Core\Include/core_cm4.h **** #define DWT_FUNCTION_DATAVSIZE_Msk         (0x3UL << DWT_FUNCTION_DATAVSIZE_Pos)       /*!< DWT FUN
1022:.\Core\Include/core_cm4.h **** 
1023:.\Core\Include/core_cm4.h **** #define DWT_FUNCTION_LNK1ENA_Pos            9U                                         /*!< DWT FUN
1024:.\Core\Include/core_cm4.h **** #define DWT_FUNCTION_LNK1ENA_Msk           (0x1UL << DWT_FUNCTION_LNK1ENA_Pos)         /*!< DWT FUN
1025:.\Core\Include/core_cm4.h **** 
1026:.\Core\Include/core_cm4.h **** #define DWT_FUNCTION_DATAVMATCH_Pos         8U                                         /*!< DWT FUN
1027:.\Core\Include/core_cm4.h **** #define DWT_FUNCTION_DATAVMATCH_Msk        (0x1UL << DWT_FUNCTION_DATAVMATCH_Pos)      /*!< DWT FUN
1028:.\Core\Include/core_cm4.h **** 
1029:.\Core\Include/core_cm4.h **** #define DWT_FUNCTION_CYCMATCH_Pos           7U                                         /*!< DWT FUN
1030:.\Core\Include/core_cm4.h **** #define DWT_FUNCTION_CYCMATCH_Msk          (0x1UL << DWT_FUNCTION_CYCMATCH_Pos)        /*!< DWT FUN
1031:.\Core\Include/core_cm4.h **** 
1032:.\Core\Include/core_cm4.h **** #define DWT_FUNCTION_EMITRANGE_Pos          5U                                         /*!< DWT FUN
1033:.\Core\Include/core_cm4.h **** #define DWT_FUNCTION_EMITRANGE_Msk         (0x1UL << DWT_FUNCTION_EMITRANGE_Pos)       /*!< DWT FUN
1034:.\Core\Include/core_cm4.h **** 
1035:.\Core\Include/core_cm4.h **** #define DWT_FUNCTION_FUNCTION_Pos           0U                                         /*!< DWT FUN
ARM GAS  C:\Users\Ramon\AppData\Local\Temp\cc2qoQyP.s 			page 27


1036:.\Core\Include/core_cm4.h **** #define DWT_FUNCTION_FUNCTION_Msk          (0xFUL /*<< DWT_FUNCTION_FUNCTION_Pos*/)    /*!< DWT FUN
1037:.\Core\Include/core_cm4.h **** 
1038:.\Core\Include/core_cm4.h **** /*@}*/ /* end of group CMSIS_DWT */
1039:.\Core\Include/core_cm4.h **** 
1040:.\Core\Include/core_cm4.h **** 
1041:.\Core\Include/core_cm4.h **** /**
1042:.\Core\Include/core_cm4.h ****   \ingroup  CMSIS_core_register
1043:.\Core\Include/core_cm4.h ****   \defgroup CMSIS_TPI     Trace Port Interface (TPI)
1044:.\Core\Include/core_cm4.h ****   \brief    Type definitions for the Trace Port Interface (TPI)
1045:.\Core\Include/core_cm4.h ****   @{
1046:.\Core\Include/core_cm4.h ****  */
1047:.\Core\Include/core_cm4.h **** 
1048:.\Core\Include/core_cm4.h **** /**
1049:.\Core\Include/core_cm4.h ****   \brief  Structure type to access the Trace Port Interface Register (TPI).
1050:.\Core\Include/core_cm4.h ****  */
1051:.\Core\Include/core_cm4.h **** typedef struct
1052:.\Core\Include/core_cm4.h **** {
1053:.\Core\Include/core_cm4.h ****   __IM  uint32_t SSPSR;                  /*!< Offset: 0x000 (R/ )  Supported Parallel Port Size Reg
1054:.\Core\Include/core_cm4.h ****   __IOM uint32_t CSPSR;                  /*!< Offset: 0x004 (R/W)  Current Parallel Port Size Regis
1055:.\Core\Include/core_cm4.h ****         uint32_t RESERVED0[2U];
1056:.\Core\Include/core_cm4.h ****   __IOM uint32_t ACPR;                   /*!< Offset: 0x010 (R/W)  Asynchronous Clock Prescaler Reg
1057:.\Core\Include/core_cm4.h ****         uint32_t RESERVED1[55U];
1058:.\Core\Include/core_cm4.h ****   __IOM uint32_t SPPR;                   /*!< Offset: 0x0F0 (R/W)  Selected Pin Protocol Register *
1059:.\Core\Include/core_cm4.h ****         uint32_t RESERVED2[131U];
1060:.\Core\Include/core_cm4.h ****   __IM  uint32_t FFSR;                   /*!< Offset: 0x300 (R/ )  Formatter and Flush Status Regis
1061:.\Core\Include/core_cm4.h ****   __IOM uint32_t FFCR;                   /*!< Offset: 0x304 (R/W)  Formatter and Flush Control Regi
1062:.\Core\Include/core_cm4.h ****   __IM  uint32_t FSCR;                   /*!< Offset: 0x308 (R/ )  Formatter Synchronization Counte
1063:.\Core\Include/core_cm4.h ****         uint32_t RESERVED3[759U];
1064:.\Core\Include/core_cm4.h ****   __IM  uint32_t TRIGGER;                /*!< Offset: 0xEE8 (R/ )  TRIGGER Register */
1065:.\Core\Include/core_cm4.h ****   __IM  uint32_t FIFO0;                  /*!< Offset: 0xEEC (R/ )  Integration ETM Data */
1066:.\Core\Include/core_cm4.h ****   __IM  uint32_t ITATBCTR2;              /*!< Offset: 0xEF0 (R/ )  ITATBCTR2 */
1067:.\Core\Include/core_cm4.h ****         uint32_t RESERVED4[1U];
1068:.\Core\Include/core_cm4.h ****   __IM  uint32_t ITATBCTR0;              /*!< Offset: 0xEF8 (R/ )  ITATBCTR0 */
1069:.\Core\Include/core_cm4.h ****   __IM  uint32_t FIFO1;                  /*!< Offset: 0xEFC (R/ )  Integration ITM Data */
1070:.\Core\Include/core_cm4.h ****   __IOM uint32_t ITCTRL;                 /*!< Offset: 0xF00 (R/W)  Integration Mode Control */
1071:.\Core\Include/core_cm4.h ****         uint32_t RESERVED5[39U];
1072:.\Core\Include/core_cm4.h ****   __IOM uint32_t CLAIMSET;               /*!< Offset: 0xFA0 (R/W)  Claim tag set */
1073:.\Core\Include/core_cm4.h ****   __IOM uint32_t CLAIMCLR;               /*!< Offset: 0xFA4 (R/W)  Claim tag clear */
1074:.\Core\Include/core_cm4.h ****         uint32_t RESERVED7[8U];
1075:.\Core\Include/core_cm4.h ****   __IM  uint32_t DEVID;                  /*!< Offset: 0xFC8 (R/ )  TPIU_DEVID */
1076:.\Core\Include/core_cm4.h ****   __IM  uint32_t DEVTYPE;                /*!< Offset: 0xFCC (R/ )  TPIU_DEVTYPE */
1077:.\Core\Include/core_cm4.h **** } TPI_Type;
1078:.\Core\Include/core_cm4.h **** 
1079:.\Core\Include/core_cm4.h **** /* TPI Asynchronous Clock Prescaler Register Definitions */
1080:.\Core\Include/core_cm4.h **** #define TPI_ACPR_PRESCALER_Pos              0U                                         /*!< TPI ACP
1081:.\Core\Include/core_cm4.h **** #define TPI_ACPR_PRESCALER_Msk             (0x1FFFUL /*<< TPI_ACPR_PRESCALER_Pos*/)    /*!< TPI ACP
1082:.\Core\Include/core_cm4.h **** 
1083:.\Core\Include/core_cm4.h **** /* TPI Selected Pin Protocol Register Definitions */
1084:.\Core\Include/core_cm4.h **** #define TPI_SPPR_TXMODE_Pos                 0U                                         /*!< TPI SPP
1085:.\Core\Include/core_cm4.h **** #define TPI_SPPR_TXMODE_Msk                (0x3UL /*<< TPI_SPPR_TXMODE_Pos*/)          /*!< TPI SPP
1086:.\Core\Include/core_cm4.h **** 
1087:.\Core\Include/core_cm4.h **** /* TPI Formatter and Flush Status Register Definitions */
1088:.\Core\Include/core_cm4.h **** #define TPI_FFSR_FtNonStop_Pos              3U                                         /*!< TPI FFS
1089:.\Core\Include/core_cm4.h **** #define TPI_FFSR_FtNonStop_Msk             (0x1UL << TPI_FFSR_FtNonStop_Pos)           /*!< TPI FFS
1090:.\Core\Include/core_cm4.h **** 
1091:.\Core\Include/core_cm4.h **** #define TPI_FFSR_TCPresent_Pos              2U                                         /*!< TPI FFS
1092:.\Core\Include/core_cm4.h **** #define TPI_FFSR_TCPresent_Msk             (0x1UL << TPI_FFSR_TCPresent_Pos)           /*!< TPI FFS
ARM GAS  C:\Users\Ramon\AppData\Local\Temp\cc2qoQyP.s 			page 28


1093:.\Core\Include/core_cm4.h **** 
1094:.\Core\Include/core_cm4.h **** #define TPI_FFSR_FtStopped_Pos              1U                                         /*!< TPI FFS
1095:.\Core\Include/core_cm4.h **** #define TPI_FFSR_FtStopped_Msk             (0x1UL << TPI_FFSR_FtStopped_Pos)           /*!< TPI FFS
1096:.\Core\Include/core_cm4.h **** 
1097:.\Core\Include/core_cm4.h **** #define TPI_FFSR_FlInProg_Pos               0U                                         /*!< TPI FFS
1098:.\Core\Include/core_cm4.h **** #define TPI_FFSR_FlInProg_Msk              (0x1UL /*<< TPI_FFSR_FlInProg_Pos*/)        /*!< TPI FFS
1099:.\Core\Include/core_cm4.h **** 
1100:.\Core\Include/core_cm4.h **** /* TPI Formatter and Flush Control Register Definitions */
1101:.\Core\Include/core_cm4.h **** #define TPI_FFCR_TrigIn_Pos                 8U                                         /*!< TPI FFC
1102:.\Core\Include/core_cm4.h **** #define TPI_FFCR_TrigIn_Msk                (0x1UL << TPI_FFCR_TrigIn_Pos)              /*!< TPI FFC
1103:.\Core\Include/core_cm4.h **** 
1104:.\Core\Include/core_cm4.h **** #define TPI_FFCR_EnFCont_Pos                1U                                         /*!< TPI FFC
1105:.\Core\Include/core_cm4.h **** #define TPI_FFCR_EnFCont_Msk               (0x1UL << TPI_FFCR_EnFCont_Pos)             /*!< TPI FFC
1106:.\Core\Include/core_cm4.h **** 
1107:.\Core\Include/core_cm4.h **** /* TPI TRIGGER Register Definitions */
1108:.\Core\Include/core_cm4.h **** #define TPI_TRIGGER_TRIGGER_Pos             0U                                         /*!< TPI TRI
1109:.\Core\Include/core_cm4.h **** #define TPI_TRIGGER_TRIGGER_Msk            (0x1UL /*<< TPI_TRIGGER_TRIGGER_Pos*/)      /*!< TPI TRI
1110:.\Core\Include/core_cm4.h **** 
1111:.\Core\Include/core_cm4.h **** /* TPI Integration ETM Data Register Definitions (FIFO0) */
1112:.\Core\Include/core_cm4.h **** #define TPI_FIFO0_ITM_ATVALID_Pos          29U                                         /*!< TPI FIF
1113:.\Core\Include/core_cm4.h **** #define TPI_FIFO0_ITM_ATVALID_Msk          (0x1UL << TPI_FIFO0_ITM_ATVALID_Pos)        /*!< TPI FIF
1114:.\Core\Include/core_cm4.h **** 
1115:.\Core\Include/core_cm4.h **** #define TPI_FIFO0_ITM_bytecount_Pos        27U                                         /*!< TPI FIF
1116:.\Core\Include/core_cm4.h **** #define TPI_FIFO0_ITM_bytecount_Msk        (0x3UL << TPI_FIFO0_ITM_bytecount_Pos)      /*!< TPI FIF
1117:.\Core\Include/core_cm4.h **** 
1118:.\Core\Include/core_cm4.h **** #define TPI_FIFO0_ETM_ATVALID_Pos          26U                                         /*!< TPI FIF
1119:.\Core\Include/core_cm4.h **** #define TPI_FIFO0_ETM_ATVALID_Msk          (0x1UL << TPI_FIFO0_ETM_ATVALID_Pos)        /*!< TPI FIF
1120:.\Core\Include/core_cm4.h **** 
1121:.\Core\Include/core_cm4.h **** #define TPI_FIFO0_ETM_bytecount_Pos        24U                                         /*!< TPI FIF
1122:.\Core\Include/core_cm4.h **** #define TPI_FIFO0_ETM_bytecount_Msk        (0x3UL << TPI_FIFO0_ETM_bytecount_Pos)      /*!< TPI FIF
1123:.\Core\Include/core_cm4.h **** 
1124:.\Core\Include/core_cm4.h **** #define TPI_FIFO0_ETM2_Pos                 16U                                         /*!< TPI FIF
1125:.\Core\Include/core_cm4.h **** #define TPI_FIFO0_ETM2_Msk                 (0xFFUL << TPI_FIFO0_ETM2_Pos)              /*!< TPI FIF
1126:.\Core\Include/core_cm4.h **** 
1127:.\Core\Include/core_cm4.h **** #define TPI_FIFO0_ETM1_Pos                  8U                                         /*!< TPI FIF
1128:.\Core\Include/core_cm4.h **** #define TPI_FIFO0_ETM1_Msk                 (0xFFUL << TPI_FIFO0_ETM1_Pos)              /*!< TPI FIF
1129:.\Core\Include/core_cm4.h **** 
1130:.\Core\Include/core_cm4.h **** #define TPI_FIFO0_ETM0_Pos                  0U                                         /*!< TPI FIF
1131:.\Core\Include/core_cm4.h **** #define TPI_FIFO0_ETM0_Msk                 (0xFFUL /*<< TPI_FIFO0_ETM0_Pos*/)          /*!< TPI FIF
1132:.\Core\Include/core_cm4.h **** 
1133:.\Core\Include/core_cm4.h **** /* TPI ITATBCTR2 Register Definitions */
1134:.\Core\Include/core_cm4.h **** #define TPI_ITATBCTR2_ATREADY2_Pos          0U                                         /*!< TPI ITA
1135:.\Core\Include/core_cm4.h **** #define TPI_ITATBCTR2_ATREADY2_Msk         (0x1UL /*<< TPI_ITATBCTR2_ATREADY2_Pos*/)   /*!< TPI ITA
1136:.\Core\Include/core_cm4.h **** 
1137:.\Core\Include/core_cm4.h **** #define TPI_ITATBCTR2_ATREADY1_Pos          0U                                         /*!< TPI ITA
1138:.\Core\Include/core_cm4.h **** #define TPI_ITATBCTR2_ATREADY1_Msk         (0x1UL /*<< TPI_ITATBCTR2_ATREADY1_Pos*/)   /*!< TPI ITA
1139:.\Core\Include/core_cm4.h **** 
1140:.\Core\Include/core_cm4.h **** /* TPI Integration ITM Data Register Definitions (FIFO1) */
1141:.\Core\Include/core_cm4.h **** #define TPI_FIFO1_ITM_ATVALID_Pos          29U                                         /*!< TPI FIF
1142:.\Core\Include/core_cm4.h **** #define TPI_FIFO1_ITM_ATVALID_Msk          (0x1UL << TPI_FIFO1_ITM_ATVALID_Pos)        /*!< TPI FIF
1143:.\Core\Include/core_cm4.h **** 
1144:.\Core\Include/core_cm4.h **** #define TPI_FIFO1_ITM_bytecount_Pos        27U                                         /*!< TPI FIF
1145:.\Core\Include/core_cm4.h **** #define TPI_FIFO1_ITM_bytecount_Msk        (0x3UL << TPI_FIFO1_ITM_bytecount_Pos)      /*!< TPI FIF
1146:.\Core\Include/core_cm4.h **** 
1147:.\Core\Include/core_cm4.h **** #define TPI_FIFO1_ETM_ATVALID_Pos          26U                                         /*!< TPI FIF
1148:.\Core\Include/core_cm4.h **** #define TPI_FIFO1_ETM_ATVALID_Msk          (0x1UL << TPI_FIFO1_ETM_ATVALID_Pos)        /*!< TPI FIF
1149:.\Core\Include/core_cm4.h **** 
ARM GAS  C:\Users\Ramon\AppData\Local\Temp\cc2qoQyP.s 			page 29


1150:.\Core\Include/core_cm4.h **** #define TPI_FIFO1_ETM_bytecount_Pos        24U                                         /*!< TPI FIF
1151:.\Core\Include/core_cm4.h **** #define TPI_FIFO1_ETM_bytecount_Msk        (0x3UL << TPI_FIFO1_ETM_bytecount_Pos)      /*!< TPI FIF
1152:.\Core\Include/core_cm4.h **** 
1153:.\Core\Include/core_cm4.h **** #define TPI_FIFO1_ITM2_Pos                 16U                                         /*!< TPI FIF
1154:.\Core\Include/core_cm4.h **** #define TPI_FIFO1_ITM2_Msk                 (0xFFUL << TPI_FIFO1_ITM2_Pos)              /*!< TPI FIF
1155:.\Core\Include/core_cm4.h **** 
1156:.\Core\Include/core_cm4.h **** #define TPI_FIFO1_ITM1_Pos                  8U                                         /*!< TPI FIF
1157:.\Core\Include/core_cm4.h **** #define TPI_FIFO1_ITM1_Msk                 (0xFFUL << TPI_FIFO1_ITM1_Pos)              /*!< TPI FIF
1158:.\Core\Include/core_cm4.h **** 
1159:.\Core\Include/core_cm4.h **** #define TPI_FIFO1_ITM0_Pos                  0U                                         /*!< TPI FIF
1160:.\Core\Include/core_cm4.h **** #define TPI_FIFO1_ITM0_Msk                 (0xFFUL /*<< TPI_FIFO1_ITM0_Pos*/)          /*!< TPI FIF
1161:.\Core\Include/core_cm4.h **** 
1162:.\Core\Include/core_cm4.h **** /* TPI ITATBCTR0 Register Definitions */
1163:.\Core\Include/core_cm4.h **** #define TPI_ITATBCTR0_ATREADY2_Pos          0U                                         /*!< TPI ITA
1164:.\Core\Include/core_cm4.h **** #define TPI_ITATBCTR0_ATREADY2_Msk         (0x1UL /*<< TPI_ITATBCTR0_ATREADY2_Pos*/)   /*!< TPI ITA
1165:.\Core\Include/core_cm4.h **** 
1166:.\Core\Include/core_cm4.h **** #define TPI_ITATBCTR0_ATREADY1_Pos          0U                                         /*!< TPI ITA
1167:.\Core\Include/core_cm4.h **** #define TPI_ITATBCTR0_ATREADY1_Msk         (0x1UL /*<< TPI_ITATBCTR0_ATREADY1_Pos*/)   /*!< TPI ITA
1168:.\Core\Include/core_cm4.h **** 
1169:.\Core\Include/core_cm4.h **** /* TPI Integration Mode Control Register Definitions */
1170:.\Core\Include/core_cm4.h **** #define TPI_ITCTRL_Mode_Pos                 0U                                         /*!< TPI ITC
1171:.\Core\Include/core_cm4.h **** #define TPI_ITCTRL_Mode_Msk                (0x3UL /*<< TPI_ITCTRL_Mode_Pos*/)          /*!< TPI ITC
1172:.\Core\Include/core_cm4.h **** 
1173:.\Core\Include/core_cm4.h **** /* TPI DEVID Register Definitions */
1174:.\Core\Include/core_cm4.h **** #define TPI_DEVID_NRZVALID_Pos             11U                                         /*!< TPI DEV
1175:.\Core\Include/core_cm4.h **** #define TPI_DEVID_NRZVALID_Msk             (0x1UL << TPI_DEVID_NRZVALID_Pos)           /*!< TPI DEV
1176:.\Core\Include/core_cm4.h **** 
1177:.\Core\Include/core_cm4.h **** #define TPI_DEVID_MANCVALID_Pos            10U                                         /*!< TPI DEV
1178:.\Core\Include/core_cm4.h **** #define TPI_DEVID_MANCVALID_Msk            (0x1UL << TPI_DEVID_MANCVALID_Pos)          /*!< TPI DEV
1179:.\Core\Include/core_cm4.h **** 
1180:.\Core\Include/core_cm4.h **** #define TPI_DEVID_PTINVALID_Pos             9U                                         /*!< TPI DEV
1181:.\Core\Include/core_cm4.h **** #define TPI_DEVID_PTINVALID_Msk            (0x1UL << TPI_DEVID_PTINVALID_Pos)          /*!< TPI DEV
1182:.\Core\Include/core_cm4.h **** 
1183:.\Core\Include/core_cm4.h **** #define TPI_DEVID_MinBufSz_Pos              6U                                         /*!< TPI DEV
1184:.\Core\Include/core_cm4.h **** #define TPI_DEVID_MinBufSz_Msk             (0x7UL << TPI_DEVID_MinBufSz_Pos)           /*!< TPI DEV
1185:.\Core\Include/core_cm4.h **** 
1186:.\Core\Include/core_cm4.h **** #define TPI_DEVID_AsynClkIn_Pos             5U                                         /*!< TPI DEV
1187:.\Core\Include/core_cm4.h **** #define TPI_DEVID_AsynClkIn_Msk            (0x1UL << TPI_DEVID_AsynClkIn_Pos)          /*!< TPI DEV
1188:.\Core\Include/core_cm4.h **** 
1189:.\Core\Include/core_cm4.h **** #define TPI_DEVID_NrTraceInput_Pos          0U                                         /*!< TPI DEV
1190:.\Core\Include/core_cm4.h **** #define TPI_DEVID_NrTraceInput_Msk         (0x1FUL /*<< TPI_DEVID_NrTraceInput_Pos*/)  /*!< TPI DEV
1191:.\Core\Include/core_cm4.h **** 
1192:.\Core\Include/core_cm4.h **** /* TPI DEVTYPE Register Definitions */
1193:.\Core\Include/core_cm4.h **** #define TPI_DEVTYPE_SubType_Pos             4U                                         /*!< TPI DEV
1194:.\Core\Include/core_cm4.h **** #define TPI_DEVTYPE_SubType_Msk            (0xFUL /*<< TPI_DEVTYPE_SubType_Pos*/)      /*!< TPI DEV
1195:.\Core\Include/core_cm4.h **** 
1196:.\Core\Include/core_cm4.h **** #define TPI_DEVTYPE_MajorType_Pos           0U                                         /*!< TPI DEV
1197:.\Core\Include/core_cm4.h **** #define TPI_DEVTYPE_MajorType_Msk          (0xFUL << TPI_DEVTYPE_MajorType_Pos)        /*!< TPI DEV
1198:.\Core\Include/core_cm4.h **** 
1199:.\Core\Include/core_cm4.h **** /*@}*/ /* end of group CMSIS_TPI */
1200:.\Core\Include/core_cm4.h **** 
1201:.\Core\Include/core_cm4.h **** 
1202:.\Core\Include/core_cm4.h **** #if defined (__MPU_PRESENT) && (__MPU_PRESENT == 1U)
1203:.\Core\Include/core_cm4.h **** /**
1204:.\Core\Include/core_cm4.h ****   \ingroup  CMSIS_core_register
1205:.\Core\Include/core_cm4.h ****   \defgroup CMSIS_MPU     Memory Protection Unit (MPU)
1206:.\Core\Include/core_cm4.h ****   \brief    Type definitions for the Memory Protection Unit (MPU)
ARM GAS  C:\Users\Ramon\AppData\Local\Temp\cc2qoQyP.s 			page 30


1207:.\Core\Include/core_cm4.h ****   @{
1208:.\Core\Include/core_cm4.h ****  */
1209:.\Core\Include/core_cm4.h **** 
1210:.\Core\Include/core_cm4.h **** /**
1211:.\Core\Include/core_cm4.h ****   \brief  Structure type to access the Memory Protection Unit (MPU).
1212:.\Core\Include/core_cm4.h ****  */
1213:.\Core\Include/core_cm4.h **** typedef struct
1214:.\Core\Include/core_cm4.h **** {
1215:.\Core\Include/core_cm4.h ****   __IM  uint32_t TYPE;                   /*!< Offset: 0x000 (R/ )  MPU Type Register */
1216:.\Core\Include/core_cm4.h ****   __IOM uint32_t CTRL;                   /*!< Offset: 0x004 (R/W)  MPU Control Register */
1217:.\Core\Include/core_cm4.h ****   __IOM uint32_t RNR;                    /*!< Offset: 0x008 (R/W)  MPU Region RNRber Register */
1218:.\Core\Include/core_cm4.h ****   __IOM uint32_t RBAR;                   /*!< Offset: 0x00C (R/W)  MPU Region Base Address Register
1219:.\Core\Include/core_cm4.h ****   __IOM uint32_t RASR;                   /*!< Offset: 0x010 (R/W)  MPU Region Attribute and Size Re
1220:.\Core\Include/core_cm4.h ****   __IOM uint32_t RBAR_A1;                /*!< Offset: 0x014 (R/W)  MPU Alias 1 Region Base Address 
1221:.\Core\Include/core_cm4.h ****   __IOM uint32_t RASR_A1;                /*!< Offset: 0x018 (R/W)  MPU Alias 1 Region Attribute and
1222:.\Core\Include/core_cm4.h ****   __IOM uint32_t RBAR_A2;                /*!< Offset: 0x01C (R/W)  MPU Alias 2 Region Base Address 
1223:.\Core\Include/core_cm4.h ****   __IOM uint32_t RASR_A2;                /*!< Offset: 0x020 (R/W)  MPU Alias 2 Region Attribute and
1224:.\Core\Include/core_cm4.h ****   __IOM uint32_t RBAR_A3;                /*!< Offset: 0x024 (R/W)  MPU Alias 3 Region Base Address 
1225:.\Core\Include/core_cm4.h ****   __IOM uint32_t RASR_A3;                /*!< Offset: 0x028 (R/W)  MPU Alias 3 Region Attribute and
1226:.\Core\Include/core_cm4.h **** } MPU_Type;
1227:.\Core\Include/core_cm4.h **** 
1228:.\Core\Include/core_cm4.h **** #define MPU_TYPE_RALIASES                  4U
1229:.\Core\Include/core_cm4.h **** 
1230:.\Core\Include/core_cm4.h **** /* MPU Type Register Definitions */
1231:.\Core\Include/core_cm4.h **** #define MPU_TYPE_IREGION_Pos               16U                                            /*!< MPU 
1232:.\Core\Include/core_cm4.h **** #define MPU_TYPE_IREGION_Msk               (0xFFUL << MPU_TYPE_IREGION_Pos)               /*!< MPU 
1233:.\Core\Include/core_cm4.h **** 
1234:.\Core\Include/core_cm4.h **** #define MPU_TYPE_DREGION_Pos                8U                                            /*!< MPU 
1235:.\Core\Include/core_cm4.h **** #define MPU_TYPE_DREGION_Msk               (0xFFUL << MPU_TYPE_DREGION_Pos)               /*!< MPU 
1236:.\Core\Include/core_cm4.h **** 
1237:.\Core\Include/core_cm4.h **** #define MPU_TYPE_SEPARATE_Pos               0U                                            /*!< MPU 
1238:.\Core\Include/core_cm4.h **** #define MPU_TYPE_SEPARATE_Msk              (1UL /*<< MPU_TYPE_SEPARATE_Pos*/)             /*!< MPU 
1239:.\Core\Include/core_cm4.h **** 
1240:.\Core\Include/core_cm4.h **** /* MPU Control Register Definitions */
1241:.\Core\Include/core_cm4.h **** #define MPU_CTRL_PRIVDEFENA_Pos             2U                                            /*!< MPU 
1242:.\Core\Include/core_cm4.h **** #define MPU_CTRL_PRIVDEFENA_Msk            (1UL << MPU_CTRL_PRIVDEFENA_Pos)               /*!< MPU 
1243:.\Core\Include/core_cm4.h **** 
1244:.\Core\Include/core_cm4.h **** #define MPU_CTRL_HFNMIENA_Pos               1U                                            /*!< MPU 
1245:.\Core\Include/core_cm4.h **** #define MPU_CTRL_HFNMIENA_Msk              (1UL << MPU_CTRL_HFNMIENA_Pos)                 /*!< MPU 
1246:.\Core\Include/core_cm4.h **** 
1247:.\Core\Include/core_cm4.h **** #define MPU_CTRL_ENABLE_Pos                 0U                                            /*!< MPU 
1248:.\Core\Include/core_cm4.h **** #define MPU_CTRL_ENABLE_Msk                (1UL /*<< MPU_CTRL_ENABLE_Pos*/)               /*!< MPU 
1249:.\Core\Include/core_cm4.h **** 
1250:.\Core\Include/core_cm4.h **** /* MPU Region Number Register Definitions */
1251:.\Core\Include/core_cm4.h **** #define MPU_RNR_REGION_Pos                  0U                                            /*!< MPU 
1252:.\Core\Include/core_cm4.h **** #define MPU_RNR_REGION_Msk                 (0xFFUL /*<< MPU_RNR_REGION_Pos*/)             /*!< MPU 
1253:.\Core\Include/core_cm4.h **** 
1254:.\Core\Include/core_cm4.h **** /* MPU Region Base Address Register Definitions */
1255:.\Core\Include/core_cm4.h **** #define MPU_RBAR_ADDR_Pos                   5U                                            /*!< MPU 
1256:.\Core\Include/core_cm4.h **** #define MPU_RBAR_ADDR_Msk                  (0x7FFFFFFUL << MPU_RBAR_ADDR_Pos)             /*!< MPU 
1257:.\Core\Include/core_cm4.h **** 
1258:.\Core\Include/core_cm4.h **** #define MPU_RBAR_VALID_Pos                  4U                                            /*!< MPU 
1259:.\Core\Include/core_cm4.h **** #define MPU_RBAR_VALID_Msk                 (1UL << MPU_RBAR_VALID_Pos)                    /*!< MPU 
1260:.\Core\Include/core_cm4.h **** 
1261:.\Core\Include/core_cm4.h **** #define MPU_RBAR_REGION_Pos                 0U                                            /*!< MPU 
1262:.\Core\Include/core_cm4.h **** #define MPU_RBAR_REGION_Msk                (0xFUL /*<< MPU_RBAR_REGION_Pos*/)             /*!< MPU 
1263:.\Core\Include/core_cm4.h **** 
ARM GAS  C:\Users\Ramon\AppData\Local\Temp\cc2qoQyP.s 			page 31


1264:.\Core\Include/core_cm4.h **** /* MPU Region Attribute and Size Register Definitions */
1265:.\Core\Include/core_cm4.h **** #define MPU_RASR_ATTRS_Pos                 16U                                            /*!< MPU 
1266:.\Core\Include/core_cm4.h **** #define MPU_RASR_ATTRS_Msk                 (0xFFFFUL << MPU_RASR_ATTRS_Pos)               /*!< MPU 
1267:.\Core\Include/core_cm4.h **** 
1268:.\Core\Include/core_cm4.h **** #define MPU_RASR_XN_Pos                    28U                                            /*!< MPU 
1269:.\Core\Include/core_cm4.h **** #define MPU_RASR_XN_Msk                    (1UL << MPU_RASR_XN_Pos)                       /*!< MPU 
1270:.\Core\Include/core_cm4.h **** 
1271:.\Core\Include/core_cm4.h **** #define MPU_RASR_AP_Pos                    24U                                            /*!< MPU 
1272:.\Core\Include/core_cm4.h **** #define MPU_RASR_AP_Msk                    (0x7UL << MPU_RASR_AP_Pos)                     /*!< MPU 
1273:.\Core\Include/core_cm4.h **** 
1274:.\Core\Include/core_cm4.h **** #define MPU_RASR_TEX_Pos                   19U                                            /*!< MPU 
1275:.\Core\Include/core_cm4.h **** #define MPU_RASR_TEX_Msk                   (0x7UL << MPU_RASR_TEX_Pos)                    /*!< MPU 
1276:.\Core\Include/core_cm4.h **** 
1277:.\Core\Include/core_cm4.h **** #define MPU_RASR_S_Pos                     18U                                            /*!< MPU 
1278:.\Core\Include/core_cm4.h **** #define MPU_RASR_S_Msk                     (1UL << MPU_RASR_S_Pos)                        /*!< MPU 
1279:.\Core\Include/core_cm4.h **** 
1280:.\Core\Include/core_cm4.h **** #define MPU_RASR_C_Pos                     17U                                            /*!< MPU 
1281:.\Core\Include/core_cm4.h **** #define MPU_RASR_C_Msk                     (1UL << MPU_RASR_C_Pos)                        /*!< MPU 
1282:.\Core\Include/core_cm4.h **** 
1283:.\Core\Include/core_cm4.h **** #define MPU_RASR_B_Pos                     16U                                            /*!< MPU 
1284:.\Core\Include/core_cm4.h **** #define MPU_RASR_B_Msk                     (1UL << MPU_RASR_B_Pos)                        /*!< MPU 
1285:.\Core\Include/core_cm4.h **** 
1286:.\Core\Include/core_cm4.h **** #define MPU_RASR_SRD_Pos                    8U                                            /*!< MPU 
1287:.\Core\Include/core_cm4.h **** #define MPU_RASR_SRD_Msk                   (0xFFUL << MPU_RASR_SRD_Pos)                   /*!< MPU 
1288:.\Core\Include/core_cm4.h **** 
1289:.\Core\Include/core_cm4.h **** #define MPU_RASR_SIZE_Pos                   1U                                            /*!< MPU 
1290:.\Core\Include/core_cm4.h **** #define MPU_RASR_SIZE_Msk                  (0x1FUL << MPU_RASR_SIZE_Pos)                  /*!< MPU 
1291:.\Core\Include/core_cm4.h **** 
1292:.\Core\Include/core_cm4.h **** #define MPU_RASR_ENABLE_Pos                 0U                                            /*!< MPU 
1293:.\Core\Include/core_cm4.h **** #define MPU_RASR_ENABLE_Msk                (1UL /*<< MPU_RASR_ENABLE_Pos*/)               /*!< MPU 
1294:.\Core\Include/core_cm4.h **** 
1295:.\Core\Include/core_cm4.h **** /*@} end of group CMSIS_MPU */
1296:.\Core\Include/core_cm4.h **** #endif /* defined (__MPU_PRESENT) && (__MPU_PRESENT == 1U) */
1297:.\Core\Include/core_cm4.h **** 
1298:.\Core\Include/core_cm4.h **** 
1299:.\Core\Include/core_cm4.h **** /**
1300:.\Core\Include/core_cm4.h ****   \ingroup  CMSIS_core_register
1301:.\Core\Include/core_cm4.h ****   \defgroup CMSIS_FPU     Floating Point Unit (FPU)
1302:.\Core\Include/core_cm4.h ****   \brief    Type definitions for the Floating Point Unit (FPU)
1303:.\Core\Include/core_cm4.h ****   @{
1304:.\Core\Include/core_cm4.h ****  */
1305:.\Core\Include/core_cm4.h **** 
1306:.\Core\Include/core_cm4.h **** /**
1307:.\Core\Include/core_cm4.h ****   \brief  Structure type to access the Floating Point Unit (FPU).
1308:.\Core\Include/core_cm4.h ****  */
1309:.\Core\Include/core_cm4.h **** typedef struct
1310:.\Core\Include/core_cm4.h **** {
1311:.\Core\Include/core_cm4.h ****         uint32_t RESERVED0[1U];
1312:.\Core\Include/core_cm4.h ****   __IOM uint32_t FPCCR;                  /*!< Offset: 0x004 (R/W)  Floating-Point Context Control R
1313:.\Core\Include/core_cm4.h ****   __IOM uint32_t FPCAR;                  /*!< Offset: 0x008 (R/W)  Floating-Point Context Address R
1314:.\Core\Include/core_cm4.h ****   __IOM uint32_t FPDSCR;                 /*!< Offset: 0x00C (R/W)  Floating-Point Default Status Co
1315:.\Core\Include/core_cm4.h ****   __IM  uint32_t MVFR0;                  /*!< Offset: 0x010 (R/ )  Media and FP Feature Register 0 
1316:.\Core\Include/core_cm4.h ****   __IM  uint32_t MVFR1;                  /*!< Offset: 0x014 (R/ )  Media and FP Feature Register 1 
1317:.\Core\Include/core_cm4.h ****   __IM  uint32_t MVFR2;                  /*!< Offset: 0x018 (R/ )  Media and FP Feature Register 2 
1318:.\Core\Include/core_cm4.h **** } FPU_Type;
1319:.\Core\Include/core_cm4.h **** 
1320:.\Core\Include/core_cm4.h **** /* Floating-Point Context Control Register Definitions */
ARM GAS  C:\Users\Ramon\AppData\Local\Temp\cc2qoQyP.s 			page 32


1321:.\Core\Include/core_cm4.h **** #define FPU_FPCCR_ASPEN_Pos                31U                                            /*!< FPCC
1322:.\Core\Include/core_cm4.h **** #define FPU_FPCCR_ASPEN_Msk                (1UL << FPU_FPCCR_ASPEN_Pos)                   /*!< FPCC
1323:.\Core\Include/core_cm4.h **** 
1324:.\Core\Include/core_cm4.h **** #define FPU_FPCCR_LSPEN_Pos                30U                                            /*!< FPCC
1325:.\Core\Include/core_cm4.h **** #define FPU_FPCCR_LSPEN_Msk                (1UL << FPU_FPCCR_LSPEN_Pos)                   /*!< FPCC
1326:.\Core\Include/core_cm4.h **** 
1327:.\Core\Include/core_cm4.h **** #define FPU_FPCCR_MONRDY_Pos                8U                                            /*!< FPCC
1328:.\Core\Include/core_cm4.h **** #define FPU_FPCCR_MONRDY_Msk               (1UL << FPU_FPCCR_MONRDY_Pos)                  /*!< FPCC
1329:.\Core\Include/core_cm4.h **** 
1330:.\Core\Include/core_cm4.h **** #define FPU_FPCCR_BFRDY_Pos                 6U                                            /*!< FPCC
1331:.\Core\Include/core_cm4.h **** #define FPU_FPCCR_BFRDY_Msk                (1UL << FPU_FPCCR_BFRDY_Pos)                   /*!< FPCC
1332:.\Core\Include/core_cm4.h **** 
1333:.\Core\Include/core_cm4.h **** #define FPU_FPCCR_MMRDY_Pos                 5U                                            /*!< FPCC
1334:.\Core\Include/core_cm4.h **** #define FPU_FPCCR_MMRDY_Msk                (1UL << FPU_FPCCR_MMRDY_Pos)                   /*!< FPCC
1335:.\Core\Include/core_cm4.h **** 
1336:.\Core\Include/core_cm4.h **** #define FPU_FPCCR_HFRDY_Pos                 4U                                            /*!< FPCC
1337:.\Core\Include/core_cm4.h **** #define FPU_FPCCR_HFRDY_Msk                (1UL << FPU_FPCCR_HFRDY_Pos)                   /*!< FPCC
1338:.\Core\Include/core_cm4.h **** 
1339:.\Core\Include/core_cm4.h **** #define FPU_FPCCR_THREAD_Pos                3U                                            /*!< FPCC
1340:.\Core\Include/core_cm4.h **** #define FPU_FPCCR_THREAD_Msk               (1UL << FPU_FPCCR_THREAD_Pos)                  /*!< FPCC
1341:.\Core\Include/core_cm4.h **** 
1342:.\Core\Include/core_cm4.h **** #define FPU_FPCCR_USER_Pos                  1U                                            /*!< FPCC
1343:.\Core\Include/core_cm4.h **** #define FPU_FPCCR_USER_Msk                 (1UL << FPU_FPCCR_USER_Pos)                    /*!< FPCC
1344:.\Core\Include/core_cm4.h **** 
1345:.\Core\Include/core_cm4.h **** #define FPU_FPCCR_LSPACT_Pos                0U                                            /*!< FPCC
1346:.\Core\Include/core_cm4.h **** #define FPU_FPCCR_LSPACT_Msk               (1UL /*<< FPU_FPCCR_LSPACT_Pos*/)              /*!< FPCC
1347:.\Core\Include/core_cm4.h **** 
1348:.\Core\Include/core_cm4.h **** /* Floating-Point Context Address Register Definitions */
1349:.\Core\Include/core_cm4.h **** #define FPU_FPCAR_ADDRESS_Pos               3U                                            /*!< FPCA
1350:.\Core\Include/core_cm4.h **** #define FPU_FPCAR_ADDRESS_Msk              (0x1FFFFFFFUL << FPU_FPCAR_ADDRESS_Pos)        /*!< FPCA
1351:.\Core\Include/core_cm4.h **** 
1352:.\Core\Include/core_cm4.h **** /* Floating-Point Default Status Control Register Definitions */
1353:.\Core\Include/core_cm4.h **** #define FPU_FPDSCR_AHP_Pos                 26U                                            /*!< FPDS
1354:.\Core\Include/core_cm4.h **** #define FPU_FPDSCR_AHP_Msk                 (1UL << FPU_FPDSCR_AHP_Pos)                    /*!< FPDS
1355:.\Core\Include/core_cm4.h **** 
1356:.\Core\Include/core_cm4.h **** #define FPU_FPDSCR_DN_Pos                  25U                                            /*!< FPDS
1357:.\Core\Include/core_cm4.h **** #define FPU_FPDSCR_DN_Msk                  (1UL << FPU_FPDSCR_DN_Pos)                     /*!< FPDS
1358:.\Core\Include/core_cm4.h **** 
1359:.\Core\Include/core_cm4.h **** #define FPU_FPDSCR_FZ_Pos                  24U                                            /*!< FPDS
1360:.\Core\Include/core_cm4.h **** #define FPU_FPDSCR_FZ_Msk                  (1UL << FPU_FPDSCR_FZ_Pos)                     /*!< FPDS
1361:.\Core\Include/core_cm4.h **** 
1362:.\Core\Include/core_cm4.h **** #define FPU_FPDSCR_RMode_Pos               22U                                            /*!< FPDS
1363:.\Core\Include/core_cm4.h **** #define FPU_FPDSCR_RMode_Msk               (3UL << FPU_FPDSCR_RMode_Pos)                  /*!< FPDS
1364:.\Core\Include/core_cm4.h **** 
1365:.\Core\Include/core_cm4.h **** /* Media and FP Feature Register 0 Definitions */
1366:.\Core\Include/core_cm4.h **** #define FPU_MVFR0_FP_rounding_modes_Pos    28U                                            /*!< MVFR
1367:.\Core\Include/core_cm4.h **** #define FPU_MVFR0_FP_rounding_modes_Msk    (0xFUL << FPU_MVFR0_FP_rounding_modes_Pos)     /*!< MVFR
1368:.\Core\Include/core_cm4.h **** 
1369:.\Core\Include/core_cm4.h **** #define FPU_MVFR0_Short_vectors_Pos        24U                                            /*!< MVFR
1370:.\Core\Include/core_cm4.h **** #define FPU_MVFR0_Short_vectors_Msk        (0xFUL << FPU_MVFR0_Short_vectors_Pos)         /*!< MVFR
1371:.\Core\Include/core_cm4.h **** 
1372:.\Core\Include/core_cm4.h **** #define FPU_MVFR0_Square_root_Pos          20U                                            /*!< MVFR
1373:.\Core\Include/core_cm4.h **** #define FPU_MVFR0_Square_root_Msk          (0xFUL << FPU_MVFR0_Square_root_Pos)           /*!< MVFR
1374:.\Core\Include/core_cm4.h **** 
1375:.\Core\Include/core_cm4.h **** #define FPU_MVFR0_Divide_Pos               16U                                            /*!< MVFR
1376:.\Core\Include/core_cm4.h **** #define FPU_MVFR0_Divide_Msk               (0xFUL << FPU_MVFR0_Divide_Pos)                /*!< MVFR
1377:.\Core\Include/core_cm4.h **** 
ARM GAS  C:\Users\Ramon\AppData\Local\Temp\cc2qoQyP.s 			page 33


1378:.\Core\Include/core_cm4.h **** #define FPU_MVFR0_FP_excep_trapping_Pos    12U                                            /*!< MVFR
1379:.\Core\Include/core_cm4.h **** #define FPU_MVFR0_FP_excep_trapping_Msk    (0xFUL << FPU_MVFR0_FP_excep_trapping_Pos)     /*!< MVFR
1380:.\Core\Include/core_cm4.h **** 
1381:.\Core\Include/core_cm4.h **** #define FPU_MVFR0_Double_precision_Pos      8U                                            /*!< MVFR
1382:.\Core\Include/core_cm4.h **** #define FPU_MVFR0_Double_precision_Msk     (0xFUL << FPU_MVFR0_Double_precision_Pos)      /*!< MVFR
1383:.\Core\Include/core_cm4.h **** 
1384:.\Core\Include/core_cm4.h **** #define FPU_MVFR0_Single_precision_Pos      4U                                            /*!< MVFR
1385:.\Core\Include/core_cm4.h **** #define FPU_MVFR0_Single_precision_Msk     (0xFUL << FPU_MVFR0_Single_precision_Pos)      /*!< MVFR
1386:.\Core\Include/core_cm4.h **** 
1387:.\Core\Include/core_cm4.h **** #define FPU_MVFR0_A_SIMD_registers_Pos      0U                                            /*!< MVFR
1388:.\Core\Include/core_cm4.h **** #define FPU_MVFR0_A_SIMD_registers_Msk     (0xFUL /*<< FPU_MVFR0_A_SIMD_registers_Pos*/)  /*!< MVFR
1389:.\Core\Include/core_cm4.h **** 
1390:.\Core\Include/core_cm4.h **** /* Media and FP Feature Register 1 Definitions */
1391:.\Core\Include/core_cm4.h **** #define FPU_MVFR1_FP_fused_MAC_Pos         28U                                            /*!< MVFR
1392:.\Core\Include/core_cm4.h **** #define FPU_MVFR1_FP_fused_MAC_Msk         (0xFUL << FPU_MVFR1_FP_fused_MAC_Pos)          /*!< MVFR
1393:.\Core\Include/core_cm4.h **** 
1394:.\Core\Include/core_cm4.h **** #define FPU_MVFR1_FP_HPFP_Pos              24U                                            /*!< MVFR
1395:.\Core\Include/core_cm4.h **** #define FPU_MVFR1_FP_HPFP_Msk              (0xFUL << FPU_MVFR1_FP_HPFP_Pos)               /*!< MVFR
1396:.\Core\Include/core_cm4.h **** 
1397:.\Core\Include/core_cm4.h **** #define FPU_MVFR1_D_NaN_mode_Pos            4U                                            /*!< MVFR
1398:.\Core\Include/core_cm4.h **** #define FPU_MVFR1_D_NaN_mode_Msk           (0xFUL << FPU_MVFR1_D_NaN_mode_Pos)            /*!< MVFR
1399:.\Core\Include/core_cm4.h **** 
1400:.\Core\Include/core_cm4.h **** #define FPU_MVFR1_FtZ_mode_Pos              0U                                            /*!< MVFR
1401:.\Core\Include/core_cm4.h **** #define FPU_MVFR1_FtZ_mode_Msk             (0xFUL /*<< FPU_MVFR1_FtZ_mode_Pos*/)          /*!< MVFR
1402:.\Core\Include/core_cm4.h **** 
1403:.\Core\Include/core_cm4.h **** /* Media and FP Feature Register 2 Definitions */
1404:.\Core\Include/core_cm4.h **** 
1405:.\Core\Include/core_cm4.h **** #define FPU_MVFR2_VFP_Misc_Pos              4U                                            /*!< MVFR
1406:.\Core\Include/core_cm4.h **** #define FPU_MVFR2_VFP_Misc_Msk             (0xFUL << FPU_MVFR2_VFP_Misc_Pos)              /*!< MVFR
1407:.\Core\Include/core_cm4.h **** 
1408:.\Core\Include/core_cm4.h **** /*@} end of group CMSIS_FPU */
1409:.\Core\Include/core_cm4.h **** 
1410:.\Core\Include/core_cm4.h **** 
1411:.\Core\Include/core_cm4.h **** /**
1412:.\Core\Include/core_cm4.h ****   \ingroup  CMSIS_core_register
1413:.\Core\Include/core_cm4.h ****   \defgroup CMSIS_CoreDebug       Core Debug Registers (CoreDebug)
1414:.\Core\Include/core_cm4.h ****   \brief    Type definitions for the Core Debug Registers
1415:.\Core\Include/core_cm4.h ****   @{
1416:.\Core\Include/core_cm4.h ****  */
1417:.\Core\Include/core_cm4.h **** 
1418:.\Core\Include/core_cm4.h **** /**
1419:.\Core\Include/core_cm4.h ****   \brief  Structure type to access the Core Debug Register (CoreDebug).
1420:.\Core\Include/core_cm4.h ****  */
1421:.\Core\Include/core_cm4.h **** typedef struct
1422:.\Core\Include/core_cm4.h **** {
1423:.\Core\Include/core_cm4.h ****   __IOM uint32_t DHCSR;                  /*!< Offset: 0x000 (R/W)  Debug Halting Control and Status
1424:.\Core\Include/core_cm4.h ****   __OM  uint32_t DCRSR;                  /*!< Offset: 0x004 ( /W)  Debug Core Register Selector Reg
1425:.\Core\Include/core_cm4.h ****   __IOM uint32_t DCRDR;                  /*!< Offset: 0x008 (R/W)  Debug Core Register Data Registe
1426:.\Core\Include/core_cm4.h ****   __IOM uint32_t DEMCR;                  /*!< Offset: 0x00C (R/W)  Debug Exception and Monitor Cont
1427:.\Core\Include/core_cm4.h **** } CoreDebug_Type;
1428:.\Core\Include/core_cm4.h **** 
1429:.\Core\Include/core_cm4.h **** /* Debug Halting Control and Status Register Definitions */
1430:.\Core\Include/core_cm4.h **** #define CoreDebug_DHCSR_DBGKEY_Pos         16U                                            /*!< Core
1431:.\Core\Include/core_cm4.h **** #define CoreDebug_DHCSR_DBGKEY_Msk         (0xFFFFUL << CoreDebug_DHCSR_DBGKEY_Pos)       /*!< Core
1432:.\Core\Include/core_cm4.h **** 
1433:.\Core\Include/core_cm4.h **** #define CoreDebug_DHCSR_S_RESET_ST_Pos     25U                                            /*!< Core
1434:.\Core\Include/core_cm4.h **** #define CoreDebug_DHCSR_S_RESET_ST_Msk     (1UL << CoreDebug_DHCSR_S_RESET_ST_Pos)        /*!< Core
ARM GAS  C:\Users\Ramon\AppData\Local\Temp\cc2qoQyP.s 			page 34


1435:.\Core\Include/core_cm4.h **** 
1436:.\Core\Include/core_cm4.h **** #define CoreDebug_DHCSR_S_RETIRE_ST_Pos    24U                                            /*!< Core
1437:.\Core\Include/core_cm4.h **** #define CoreDebug_DHCSR_S_RETIRE_ST_Msk    (1UL << CoreDebug_DHCSR_S_RETIRE_ST_Pos)       /*!< Core
1438:.\Core\Include/core_cm4.h **** 
1439:.\Core\Include/core_cm4.h **** #define CoreDebug_DHCSR_S_LOCKUP_Pos       19U                                            /*!< Core
1440:.\Core\Include/core_cm4.h **** #define CoreDebug_DHCSR_S_LOCKUP_Msk       (1UL << CoreDebug_DHCSR_S_LOCKUP_Pos)          /*!< Core
1441:.\Core\Include/core_cm4.h **** 
1442:.\Core\Include/core_cm4.h **** #define CoreDebug_DHCSR_S_SLEEP_Pos        18U                                            /*!< Core
1443:.\Core\Include/core_cm4.h **** #define CoreDebug_DHCSR_S_SLEEP_Msk        (1UL << CoreDebug_DHCSR_S_SLEEP_Pos)           /*!< Core
1444:.\Core\Include/core_cm4.h **** 
1445:.\Core\Include/core_cm4.h **** #define CoreDebug_DHCSR_S_HALT_Pos         17U                                            /*!< Core
1446:.\Core\Include/core_cm4.h **** #define CoreDebug_DHCSR_S_HALT_Msk         (1UL << CoreDebug_DHCSR_S_HALT_Pos)            /*!< Core
1447:.\Core\Include/core_cm4.h **** 
1448:.\Core\Include/core_cm4.h **** #define CoreDebug_DHCSR_S_REGRDY_Pos       16U                                            /*!< Core
1449:.\Core\Include/core_cm4.h **** #define CoreDebug_DHCSR_S_REGRDY_Msk       (1UL << CoreDebug_DHCSR_S_REGRDY_Pos)          /*!< Core
1450:.\Core\Include/core_cm4.h **** 
1451:.\Core\Include/core_cm4.h **** #define CoreDebug_DHCSR_C_SNAPSTALL_Pos     5U                                            /*!< Core
1452:.\Core\Include/core_cm4.h **** #define CoreDebug_DHCSR_C_SNAPSTALL_Msk    (1UL << CoreDebug_DHCSR_C_SNAPSTALL_Pos)       /*!< Core
1453:.\Core\Include/core_cm4.h **** 
1454:.\Core\Include/core_cm4.h **** #define CoreDebug_DHCSR_C_MASKINTS_Pos      3U                                            /*!< Core
1455:.\Core\Include/core_cm4.h **** #define CoreDebug_DHCSR_C_MASKINTS_Msk     (1UL << CoreDebug_DHCSR_C_MASKINTS_Pos)        /*!< Core
1456:.\Core\Include/core_cm4.h **** 
1457:.\Core\Include/core_cm4.h **** #define CoreDebug_DHCSR_C_STEP_Pos          2U                                            /*!< Core
1458:.\Core\Include/core_cm4.h **** #define CoreDebug_DHCSR_C_STEP_Msk         (1UL << CoreDebug_DHCSR_C_STEP_Pos)            /*!< Core
1459:.\Core\Include/core_cm4.h **** 
1460:.\Core\Include/core_cm4.h **** #define CoreDebug_DHCSR_C_HALT_Pos          1U                                            /*!< Core
1461:.\Core\Include/core_cm4.h **** #define CoreDebug_DHCSR_C_HALT_Msk         (1UL << CoreDebug_DHCSR_C_HALT_Pos)            /*!< Core
1462:.\Core\Include/core_cm4.h **** 
1463:.\Core\Include/core_cm4.h **** #define CoreDebug_DHCSR_C_DEBUGEN_Pos       0U                                            /*!< Core
1464:.\Core\Include/core_cm4.h **** #define CoreDebug_DHCSR_C_DEBUGEN_Msk      (1UL /*<< CoreDebug_DHCSR_C_DEBUGEN_Pos*/)     /*!< Core
1465:.\Core\Include/core_cm4.h **** 
1466:.\Core\Include/core_cm4.h **** /* Debug Core Register Selector Register Definitions */
1467:.\Core\Include/core_cm4.h **** #define CoreDebug_DCRSR_REGWnR_Pos         16U                                            /*!< Core
1468:.\Core\Include/core_cm4.h **** #define CoreDebug_DCRSR_REGWnR_Msk         (1UL << CoreDebug_DCRSR_REGWnR_Pos)            /*!< Core
1469:.\Core\Include/core_cm4.h **** 
1470:.\Core\Include/core_cm4.h **** #define CoreDebug_DCRSR_REGSEL_Pos          0U                                            /*!< Core
1471:.\Core\Include/core_cm4.h **** #define CoreDebug_DCRSR_REGSEL_Msk         (0x1FUL /*<< CoreDebug_DCRSR_REGSEL_Pos*/)     /*!< Core
1472:.\Core\Include/core_cm4.h **** 
1473:.\Core\Include/core_cm4.h **** /* Debug Exception and Monitor Control Register Definitions */
1474:.\Core\Include/core_cm4.h **** #define CoreDebug_DEMCR_TRCENA_Pos         24U                                            /*!< Core
1475:.\Core\Include/core_cm4.h **** #define CoreDebug_DEMCR_TRCENA_Msk         (1UL << CoreDebug_DEMCR_TRCENA_Pos)            /*!< Core
1476:.\Core\Include/core_cm4.h **** 
1477:.\Core\Include/core_cm4.h **** #define CoreDebug_DEMCR_MON_REQ_Pos        19U                                            /*!< Core
1478:.\Core\Include/core_cm4.h **** #define CoreDebug_DEMCR_MON_REQ_Msk        (1UL << CoreDebug_DEMCR_MON_REQ_Pos)           /*!< Core
1479:.\Core\Include/core_cm4.h **** 
1480:.\Core\Include/core_cm4.h **** #define CoreDebug_DEMCR_MON_STEP_Pos       18U                                            /*!< Core
1481:.\Core\Include/core_cm4.h **** #define CoreDebug_DEMCR_MON_STEP_Msk       (1UL << CoreDebug_DEMCR_MON_STEP_Pos)          /*!< Core
1482:.\Core\Include/core_cm4.h **** 
1483:.\Core\Include/core_cm4.h **** #define CoreDebug_DEMCR_MON_PEND_Pos       17U                                            /*!< Core
1484:.\Core\Include/core_cm4.h **** #define CoreDebug_DEMCR_MON_PEND_Msk       (1UL << CoreDebug_DEMCR_MON_PEND_Pos)          /*!< Core
1485:.\Core\Include/core_cm4.h **** 
1486:.\Core\Include/core_cm4.h **** #define CoreDebug_DEMCR_MON_EN_Pos         16U                                            /*!< Core
1487:.\Core\Include/core_cm4.h **** #define CoreDebug_DEMCR_MON_EN_Msk         (1UL << CoreDebug_DEMCR_MON_EN_Pos)            /*!< Core
1488:.\Core\Include/core_cm4.h **** 
1489:.\Core\Include/core_cm4.h **** #define CoreDebug_DEMCR_VC_HARDERR_Pos     10U                                            /*!< Core
1490:.\Core\Include/core_cm4.h **** #define CoreDebug_DEMCR_VC_HARDERR_Msk     (1UL << CoreDebug_DEMCR_VC_HARDERR_Pos)        /*!< Core
1491:.\Core\Include/core_cm4.h **** 
ARM GAS  C:\Users\Ramon\AppData\Local\Temp\cc2qoQyP.s 			page 35


1492:.\Core\Include/core_cm4.h **** #define CoreDebug_DEMCR_VC_INTERR_Pos       9U                                            /*!< Core
1493:.\Core\Include/core_cm4.h **** #define CoreDebug_DEMCR_VC_INTERR_Msk      (1UL << CoreDebug_DEMCR_VC_INTERR_Pos)         /*!< Core
1494:.\Core\Include/core_cm4.h **** 
1495:.\Core\Include/core_cm4.h **** #define CoreDebug_DEMCR_VC_BUSERR_Pos       8U                                            /*!< Core
1496:.\Core\Include/core_cm4.h **** #define CoreDebug_DEMCR_VC_BUSERR_Msk      (1UL << CoreDebug_DEMCR_VC_BUSERR_Pos)         /*!< Core
1497:.\Core\Include/core_cm4.h **** 
1498:.\Core\Include/core_cm4.h **** #define CoreDebug_DEMCR_VC_STATERR_Pos      7U                                            /*!< Core
1499:.\Core\Include/core_cm4.h **** #define CoreDebug_DEMCR_VC_STATERR_Msk     (1UL << CoreDebug_DEMCR_VC_STATERR_Pos)        /*!< Core
1500:.\Core\Include/core_cm4.h **** 
1501:.\Core\Include/core_cm4.h **** #define CoreDebug_DEMCR_VC_CHKERR_Pos       6U                                            /*!< Core
1502:.\Core\Include/core_cm4.h **** #define CoreDebug_DEMCR_VC_CHKERR_Msk      (1UL << CoreDebug_DEMCR_VC_CHKERR_Pos)         /*!< Core
1503:.\Core\Include/core_cm4.h **** 
1504:.\Core\Include/core_cm4.h **** #define CoreDebug_DEMCR_VC_NOCPERR_Pos      5U                                            /*!< Core
1505:.\Core\Include/core_cm4.h **** #define CoreDebug_DEMCR_VC_NOCPERR_Msk     (1UL << CoreDebug_DEMCR_VC_NOCPERR_Pos)        /*!< Core
1506:.\Core\Include/core_cm4.h **** 
1507:.\Core\Include/core_cm4.h **** #define CoreDebug_DEMCR_VC_MMERR_Pos        4U                                            /*!< Core
1508:.\Core\Include/core_cm4.h **** #define CoreDebug_DEMCR_VC_MMERR_Msk       (1UL << CoreDebug_DEMCR_VC_MMERR_Pos)          /*!< Core
1509:.\Core\Include/core_cm4.h **** 
1510:.\Core\Include/core_cm4.h **** #define CoreDebug_DEMCR_VC_CORERESET_Pos    0U                                            /*!< Core
1511:.\Core\Include/core_cm4.h **** #define CoreDebug_DEMCR_VC_CORERESET_Msk   (1UL /*<< CoreDebug_DEMCR_VC_CORERESET_Pos*/)  /*!< Core
1512:.\Core\Include/core_cm4.h **** 
1513:.\Core\Include/core_cm4.h **** /*@} end of group CMSIS_CoreDebug */
1514:.\Core\Include/core_cm4.h **** 
1515:.\Core\Include/core_cm4.h **** 
1516:.\Core\Include/core_cm4.h **** /**
1517:.\Core\Include/core_cm4.h ****   \ingroup    CMSIS_core_register
1518:.\Core\Include/core_cm4.h ****   \defgroup   CMSIS_core_bitfield     Core register bit field macros
1519:.\Core\Include/core_cm4.h ****   \brief      Macros for use with bit field definitions (xxx_Pos, xxx_Msk).
1520:.\Core\Include/core_cm4.h ****   @{
1521:.\Core\Include/core_cm4.h ****  */
1522:.\Core\Include/core_cm4.h **** 
1523:.\Core\Include/core_cm4.h **** /**
1524:.\Core\Include/core_cm4.h ****   \brief   Mask and shift a bit field value for use in a register bit range.
1525:.\Core\Include/core_cm4.h ****   \param[in] field  Name of the register bit field.
1526:.\Core\Include/core_cm4.h ****   \param[in] value  Value of the bit field. This parameter is interpreted as an uint32_t type.
1527:.\Core\Include/core_cm4.h ****   \return           Masked and shifted value.
1528:.\Core\Include/core_cm4.h **** */
1529:.\Core\Include/core_cm4.h **** #define _VAL2FLD(field, value)    (((uint32_t)(value) << field ## _Pos) & field ## _Msk)
1530:.\Core\Include/core_cm4.h **** 
1531:.\Core\Include/core_cm4.h **** /**
1532:.\Core\Include/core_cm4.h ****   \brief     Mask and shift a register value to extract a bit filed value.
1533:.\Core\Include/core_cm4.h ****   \param[in] field  Name of the register bit field.
1534:.\Core\Include/core_cm4.h ****   \param[in] value  Value of register. This parameter is interpreted as an uint32_t type.
1535:.\Core\Include/core_cm4.h ****   \return           Masked and shifted bit field value.
1536:.\Core\Include/core_cm4.h **** */
1537:.\Core\Include/core_cm4.h **** #define _FLD2VAL(field, value)    (((uint32_t)(value) & field ## _Msk) >> field ## _Pos)
1538:.\Core\Include/core_cm4.h **** 
1539:.\Core\Include/core_cm4.h **** /*@} end of group CMSIS_core_bitfield */
1540:.\Core\Include/core_cm4.h **** 
1541:.\Core\Include/core_cm4.h **** 
1542:.\Core\Include/core_cm4.h **** /**
1543:.\Core\Include/core_cm4.h ****   \ingroup    CMSIS_core_register
1544:.\Core\Include/core_cm4.h ****   \defgroup   CMSIS_core_base     Core Definitions
1545:.\Core\Include/core_cm4.h ****   \brief      Definitions for base addresses, unions, and structures.
1546:.\Core\Include/core_cm4.h ****   @{
1547:.\Core\Include/core_cm4.h ****  */
1548:.\Core\Include/core_cm4.h **** 
ARM GAS  C:\Users\Ramon\AppData\Local\Temp\cc2qoQyP.s 			page 36


1549:.\Core\Include/core_cm4.h **** /* Memory mapping of Core Hardware */
1550:.\Core\Include/core_cm4.h **** #define SCS_BASE            (0xE000E000UL)                            /*!< System Control Space Bas
1551:.\Core\Include/core_cm4.h **** #define ITM_BASE            (0xE0000000UL)                            /*!< ITM Base Address */
1552:.\Core\Include/core_cm4.h **** #define DWT_BASE            (0xE0001000UL)                            /*!< DWT Base Address */
1553:.\Core\Include/core_cm4.h **** #define TPI_BASE            (0xE0040000UL)                            /*!< TPI Base Address */
1554:.\Core\Include/core_cm4.h **** #define CoreDebug_BASE      (0xE000EDF0UL)                            /*!< Core Debug Base Address 
1555:.\Core\Include/core_cm4.h **** #define SysTick_BASE        (SCS_BASE +  0x0010UL)                    /*!< SysTick Base Address */
1556:.\Core\Include/core_cm4.h **** #define NVIC_BASE           (SCS_BASE +  0x0100UL)                    /*!< NVIC Base Address */
1557:.\Core\Include/core_cm4.h **** #define SCB_BASE            (SCS_BASE +  0x0D00UL)                    /*!< System Control Block Bas
1558:.\Core\Include/core_cm4.h **** 
1559:.\Core\Include/core_cm4.h **** #define SCnSCB              ((SCnSCB_Type    *)     SCS_BASE      )   /*!< System control Register 
1560:.\Core\Include/core_cm4.h **** #define SCB                 ((SCB_Type       *)     SCB_BASE      )   /*!< SCB configuration struct
1561:.\Core\Include/core_cm4.h **** #define SysTick             ((SysTick_Type   *)     SysTick_BASE  )   /*!< SysTick configuration st
1562:.\Core\Include/core_cm4.h **** #define NVIC                ((NVIC_Type      *)     NVIC_BASE     )   /*!< NVIC configuration struc
1563:.\Core\Include/core_cm4.h **** #define ITM                 ((ITM_Type       *)     ITM_BASE      )   /*!< ITM configuration struct
1564:.\Core\Include/core_cm4.h **** #define DWT                 ((DWT_Type       *)     DWT_BASE      )   /*!< DWT configuration struct
1565:.\Core\Include/core_cm4.h **** #define TPI                 ((TPI_Type       *)     TPI_BASE      )   /*!< TPI configuration struct
1566:.\Core\Include/core_cm4.h **** #define CoreDebug           ((CoreDebug_Type *)     CoreDebug_BASE)   /*!< Core Debug configuration
1567:.\Core\Include/core_cm4.h **** 
1568:.\Core\Include/core_cm4.h **** #if defined (__MPU_PRESENT) && (__MPU_PRESENT == 1U)
1569:.\Core\Include/core_cm4.h ****   #define MPU_BASE          (SCS_BASE +  0x0D90UL)                    /*!< Memory Protection Unit *
1570:.\Core\Include/core_cm4.h ****   #define MPU               ((MPU_Type       *)     MPU_BASE      )   /*!< Memory Protection Unit *
1571:.\Core\Include/core_cm4.h **** #endif
1572:.\Core\Include/core_cm4.h **** 
1573:.\Core\Include/core_cm4.h **** #define FPU_BASE            (SCS_BASE +  0x0F30UL)                    /*!< Floating Point Unit */
1574:.\Core\Include/core_cm4.h **** #define FPU                 ((FPU_Type       *)     FPU_BASE      )   /*!< Floating Point Unit */
1575:.\Core\Include/core_cm4.h **** 
1576:.\Core\Include/core_cm4.h **** /*@} */
1577:.\Core\Include/core_cm4.h **** 
1578:.\Core\Include/core_cm4.h **** 
1579:.\Core\Include/core_cm4.h **** 
1580:.\Core\Include/core_cm4.h **** /*******************************************************************************
1581:.\Core\Include/core_cm4.h ****  *                Hardware Abstraction Layer
1582:.\Core\Include/core_cm4.h ****   Core Function Interface contains:
1583:.\Core\Include/core_cm4.h ****   - Core NVIC Functions
1584:.\Core\Include/core_cm4.h ****   - Core SysTick Functions
1585:.\Core\Include/core_cm4.h ****   - Core Debug Functions
1586:.\Core\Include/core_cm4.h ****   - Core Register Access Functions
1587:.\Core\Include/core_cm4.h ****  ******************************************************************************/
1588:.\Core\Include/core_cm4.h **** /**
1589:.\Core\Include/core_cm4.h ****   \defgroup CMSIS_Core_FunctionInterface Functions and Instructions Reference
1590:.\Core\Include/core_cm4.h **** */
1591:.\Core\Include/core_cm4.h **** 
1592:.\Core\Include/core_cm4.h **** 
1593:.\Core\Include/core_cm4.h **** 
1594:.\Core\Include/core_cm4.h **** /* ##########################   NVIC functions  #################################### */
1595:.\Core\Include/core_cm4.h **** /**
1596:.\Core\Include/core_cm4.h ****   \ingroup  CMSIS_Core_FunctionInterface
1597:.\Core\Include/core_cm4.h ****   \defgroup CMSIS_Core_NVICFunctions NVIC Functions
1598:.\Core\Include/core_cm4.h ****   \brief    Functions that manage interrupts and exceptions via the NVIC.
1599:.\Core\Include/core_cm4.h ****   @{
1600:.\Core\Include/core_cm4.h ****  */
1601:.\Core\Include/core_cm4.h **** 
1602:.\Core\Include/core_cm4.h **** #ifdef CMSIS_NVIC_VIRTUAL
1603:.\Core\Include/core_cm4.h ****   #ifndef CMSIS_NVIC_VIRTUAL_HEADER_FILE
1604:.\Core\Include/core_cm4.h ****     #define CMSIS_NVIC_VIRTUAL_HEADER_FILE "cmsis_nvic_virtual.h"
1605:.\Core\Include/core_cm4.h ****   #endif
ARM GAS  C:\Users\Ramon\AppData\Local\Temp\cc2qoQyP.s 			page 37


1606:.\Core\Include/core_cm4.h ****   #include CMSIS_NVIC_VIRTUAL_HEADER_FILE
1607:.\Core\Include/core_cm4.h **** #else
1608:.\Core\Include/core_cm4.h ****   #define NVIC_SetPriorityGrouping    __NVIC_SetPriorityGrouping
1609:.\Core\Include/core_cm4.h ****   #define NVIC_GetPriorityGrouping    __NVIC_GetPriorityGrouping
1610:.\Core\Include/core_cm4.h ****   #define NVIC_EnableIRQ              __NVIC_EnableIRQ
1611:.\Core\Include/core_cm4.h ****   #define NVIC_GetEnableIRQ           __NVIC_GetEnableIRQ
1612:.\Core\Include/core_cm4.h ****   #define NVIC_DisableIRQ             __NVIC_DisableIRQ
1613:.\Core\Include/core_cm4.h ****   #define NVIC_GetPendingIRQ          __NVIC_GetPendingIRQ
1614:.\Core\Include/core_cm4.h ****   #define NVIC_SetPendingIRQ          __NVIC_SetPendingIRQ
1615:.\Core\Include/core_cm4.h ****   #define NVIC_ClearPendingIRQ        __NVIC_ClearPendingIRQ
1616:.\Core\Include/core_cm4.h ****   #define NVIC_GetActive              __NVIC_GetActive
1617:.\Core\Include/core_cm4.h ****   #define NVIC_SetPriority            __NVIC_SetPriority
1618:.\Core\Include/core_cm4.h ****   #define NVIC_GetPriority            __NVIC_GetPriority
1619:.\Core\Include/core_cm4.h ****   #define NVIC_SystemReset            __NVIC_SystemReset
1620:.\Core\Include/core_cm4.h **** #endif /* CMSIS_NVIC_VIRTUAL */
1621:.\Core\Include/core_cm4.h **** 
1622:.\Core\Include/core_cm4.h **** #ifdef CMSIS_VECTAB_VIRTUAL
1623:.\Core\Include/core_cm4.h ****   #ifndef CMSIS_VECTAB_VIRTUAL_HEADER_FILE
1624:.\Core\Include/core_cm4.h ****     #define CMSIS_VECTAB_VIRTUAL_HEADER_FILE "cmsis_vectab_virtual.h"
1625:.\Core\Include/core_cm4.h ****   #endif
1626:.\Core\Include/core_cm4.h ****   #include CMSIS_VECTAB_VIRTUAL_HEADER_FILE
1627:.\Core\Include/core_cm4.h **** #else
1628:.\Core\Include/core_cm4.h ****   #define NVIC_SetVector              __NVIC_SetVector
1629:.\Core\Include/core_cm4.h ****   #define NVIC_GetVector              __NVIC_GetVector
1630:.\Core\Include/core_cm4.h **** #endif  /* (CMSIS_VECTAB_VIRTUAL) */
1631:.\Core\Include/core_cm4.h **** 
1632:.\Core\Include/core_cm4.h **** #define NVIC_USER_IRQ_OFFSET          16
1633:.\Core\Include/core_cm4.h **** 
1634:.\Core\Include/core_cm4.h **** 
1635:.\Core\Include/core_cm4.h **** /* The following EXC_RETURN values are saved the LR on exception entry */
1636:.\Core\Include/core_cm4.h **** #define EXC_RETURN_HANDLER         (0xFFFFFFF1UL)     /* return to Handler mode, uses MSP after ret
1637:.\Core\Include/core_cm4.h **** #define EXC_RETURN_THREAD_MSP      (0xFFFFFFF9UL)     /* return to Thread mode, uses MSP after retu
1638:.\Core\Include/core_cm4.h **** #define EXC_RETURN_THREAD_PSP      (0xFFFFFFFDUL)     /* return to Thread mode, uses PSP after retu
1639:.\Core\Include/core_cm4.h **** #define EXC_RETURN_HANDLER_FPU     (0xFFFFFFE1UL)     /* return to Handler mode, uses MSP after ret
1640:.\Core\Include/core_cm4.h **** #define EXC_RETURN_THREAD_MSP_FPU  (0xFFFFFFE9UL)     /* return to Thread mode, uses MSP after retu
1641:.\Core\Include/core_cm4.h **** #define EXC_RETURN_THREAD_PSP_FPU  (0xFFFFFFEDUL)     /* return to Thread mode, uses PSP after retu
1642:.\Core\Include/core_cm4.h **** 
1643:.\Core\Include/core_cm4.h **** 
1644:.\Core\Include/core_cm4.h **** /**
1645:.\Core\Include/core_cm4.h ****   \brief   Set Priority Grouping
1646:.\Core\Include/core_cm4.h ****   \details Sets the priority grouping field using the required unlock sequence.
1647:.\Core\Include/core_cm4.h ****            The parameter PriorityGroup is assigned to the field SCB->AIRCR [10:8] PRIGROUP field.
1648:.\Core\Include/core_cm4.h ****            Only values from 0..7 are used.
1649:.\Core\Include/core_cm4.h ****            In case of a conflict between priority grouping and available
1650:.\Core\Include/core_cm4.h ****            priority bits (__NVIC_PRIO_BITS), the smallest possible priority group is set.
1651:.\Core\Include/core_cm4.h ****   \param [in]      PriorityGroup  Priority grouping field.
1652:.\Core\Include/core_cm4.h ****  */
1653:.\Core\Include/core_cm4.h **** __STATIC_INLINE void __NVIC_SetPriorityGrouping(uint32_t PriorityGroup)
1654:.\Core\Include/core_cm4.h **** {
1655:.\Core\Include/core_cm4.h ****   uint32_t reg_value;
1656:.\Core\Include/core_cm4.h ****   uint32_t PriorityGroupTmp = (PriorityGroup & (uint32_t)0x07UL);             /* only values 0..7 a
1657:.\Core\Include/core_cm4.h **** 
1658:.\Core\Include/core_cm4.h ****   reg_value  =  SCB->AIRCR;                                                   /* read old register 
1659:.\Core\Include/core_cm4.h ****   reg_value &= ~((uint32_t)(SCB_AIRCR_VECTKEY_Msk | SCB_AIRCR_PRIGROUP_Msk)); /* clear bits to chan
1660:.\Core\Include/core_cm4.h ****   reg_value  =  (reg_value                                   |
1661:.\Core\Include/core_cm4.h ****                 ((uint32_t)0x5FAUL << SCB_AIRCR_VECTKEY_Pos) |
1662:.\Core\Include/core_cm4.h ****                 (PriorityGroupTmp << SCB_AIRCR_PRIGROUP_Pos)  );              /* Insert write key a
ARM GAS  C:\Users\Ramon\AppData\Local\Temp\cc2qoQyP.s 			page 38


1663:.\Core\Include/core_cm4.h ****   SCB->AIRCR =  reg_value;
1664:.\Core\Include/core_cm4.h **** }
1665:.\Core\Include/core_cm4.h **** 
1666:.\Core\Include/core_cm4.h **** 
1667:.\Core\Include/core_cm4.h **** /**
1668:.\Core\Include/core_cm4.h ****   \brief   Get Priority Grouping
1669:.\Core\Include/core_cm4.h ****   \details Reads the priority grouping field from the NVIC Interrupt Controller.
1670:.\Core\Include/core_cm4.h ****   \return                Priority grouping field (SCB->AIRCR [10:8] PRIGROUP field).
1671:.\Core\Include/core_cm4.h ****  */
1672:.\Core\Include/core_cm4.h **** __STATIC_INLINE uint32_t __NVIC_GetPriorityGrouping(void)
1673:.\Core\Include/core_cm4.h **** {
1674:.\Core\Include/core_cm4.h ****   return ((uint32_t)((SCB->AIRCR & SCB_AIRCR_PRIGROUP_Msk) >> SCB_AIRCR_PRIGROUP_Pos));
1675:.\Core\Include/core_cm4.h **** }
1676:.\Core\Include/core_cm4.h **** 
1677:.\Core\Include/core_cm4.h **** 
1678:.\Core\Include/core_cm4.h **** /**
1679:.\Core\Include/core_cm4.h ****   \brief   Enable Interrupt
1680:.\Core\Include/core_cm4.h ****   \details Enables a device specific interrupt in the NVIC interrupt controller.
1681:.\Core\Include/core_cm4.h ****   \param [in]      IRQn  Device specific interrupt number.
1682:.\Core\Include/core_cm4.h ****   \note    IRQn must not be negative.
1683:.\Core\Include/core_cm4.h ****  */
1684:.\Core\Include/core_cm4.h **** __STATIC_INLINE void __NVIC_EnableIRQ(IRQn_Type IRQn)
1685:.\Core\Include/core_cm4.h **** {
1686:.\Core\Include/core_cm4.h ****   if ((int32_t)(IRQn) >= 0)
 162              		.loc 2 1686 0
 163 0006 002B     		cmp	r3, #0
 164 0008 08DB     		blt	.L18
1687:.\Core\Include/core_cm4.h ****   {
1688:.\Core\Include/core_cm4.h ****     __COMPILER_BARRIER();
 165              		.loc 2 1688 0
1689:.\Core\Include/core_cm4.h ****     NVIC->ISER[(((uint32_t)IRQn) >> 5UL)] = (uint32_t)(1UL << (((uint32_t)IRQn) & 0x1FUL));
 166              		.loc 2 1689 0
 167 000a 5909     		lsrs	r1, r3, #5
 168 000c 03F01F03 		and	r3, r3, #31
 169              	.LVL10:
 170 0010 0122     		movs	r2, #1
 171 0012 02FA03F3 		lsl	r3, r2, r3
 172 0016 034A     		ldr	r2, .L20+4
 173 0018 42F82130 		str	r3, [r2, r1, lsl #2]
1690:.\Core\Include/core_cm4.h ****     __COMPILER_BARRIER();
 174              		.loc 2 1690 0
 175              	.LVL11:
 176              	.L18:
 177 001c 7047     		bx	lr
 178              	.L21:
 179 001e 00BF     		.align	2
 180              	.L20:
 181 0020 00000000 		.word	DETECTOR_ADC_IRQ_cfg
 182 0024 00E100E0 		.word	-536813312
 183              	.LBE29:
 184              	.LBE28:
 185              		.cfi_endproc
 186              	.LFE220:
 187              		.size	DETECTOR_ADC_IRQ_Enable, .-DETECTOR_ADC_IRQ_Enable
 188              		.section	.text.DETECTOR_ADC_IRQ_Disable,"ax",%progbits
 189              		.align	2
 190              		.global	DETECTOR_ADC_IRQ_Disable
ARM GAS  C:\Users\Ramon\AppData\Local\Temp\cc2qoQyP.s 			page 39


 191              		.thumb
 192              		.thumb_func
 193              		.type	DETECTOR_ADC_IRQ_Disable, %function
 194              	DETECTOR_ADC_IRQ_Disable:
 195              	.LFB221:
 287:Generated_Source\PSoC6/DETECTOR_ADC.c ****     #endif
 288:Generated_Source\PSoC6/DETECTOR_ADC.c ****     #endif
 289:Generated_Source\PSoC6/DETECTOR_ADC.c **** 
 290:Generated_Source\PSoC6/DETECTOR_ADC.c ****     #ifdef DETECTOR_ADC_IRQ__INTC_CORTEXM0P_ASSIGNED
 291:Generated_Source\PSoC6/DETECTOR_ADC.c ****     #if (CY_CPU_CORTEX_M0P)
 292:Generated_Source\PSoC6/DETECTOR_ADC.c ****         NVIC_EnableIRQ(DETECTOR_ADC_IRQ_cfg.intrSrc);
 293:Generated_Source\PSoC6/DETECTOR_ADC.c ****     #endif
 294:Generated_Source\PSoC6/DETECTOR_ADC.c ****     #endif
 295:Generated_Source\PSoC6/DETECTOR_ADC.c **** }
 296:Generated_Source\PSoC6/DETECTOR_ADC.c **** 
 297:Generated_Source\PSoC6/DETECTOR_ADC.c **** /* ****************************************************************************
 298:Generated_Source\PSoC6/DETECTOR_ADC.c **** * Function Name: DETECTOR_ADC_IRQ_Disable
 299:Generated_Source\PSoC6/DETECTOR_ADC.c **** ****************************************************************************//*
 300:Generated_Source\PSoC6/DETECTOR_ADC.c **** *
 301:Generated_Source\PSoC6/DETECTOR_ADC.c **** * \brief Disables end of conversion interrupts.
 302:Generated_Source\PSoC6/DETECTOR_ADC.c **** *
 303:Generated_Source\PSoC6/DETECTOR_ADC.c **** * \param None
 304:Generated_Source\PSoC6/DETECTOR_ADC.c **** *
 305:Generated_Source\PSoC6/DETECTOR_ADC.c **** * \return None
 306:Generated_Source\PSoC6/DETECTOR_ADC.c **** *
 307:Generated_Source\PSoC6/DETECTOR_ADC.c **** * \sideeffect None
 308:Generated_Source\PSoC6/DETECTOR_ADC.c **** *
 309:Generated_Source\PSoC6/DETECTOR_ADC.c **** *******************************************************************************/
 310:Generated_Source\PSoC6/DETECTOR_ADC.c **** void DETECTOR_ADC_IRQ_Disable(void){
 196              		.loc 1 310 0
 197              		.cfi_startproc
 198              		@ args = 0, pretend = 0, frame = 0
 199              		@ frame_needed = 0, uses_anonymous_args = 0
 200              		@ link register save eliminated.
 311:Generated_Source\PSoC6/DETECTOR_ADC.c ****     /* Interrupt core assignment will be up to the user. */
 312:Generated_Source\PSoC6/DETECTOR_ADC.c ****     #ifdef DETECTOR_ADC_IRQ__INTC_CORTEXM4_ASSIGNED
 313:Generated_Source\PSoC6/DETECTOR_ADC.c ****     #if (CY_CPU_CORTEX_M4)
 314:Generated_Source\PSoC6/DETECTOR_ADC.c ****         NVIC_DisableIRQ(DETECTOR_ADC_IRQ_cfg.intrSrc);
 201              		.loc 1 314 0
 202 0000 094B     		ldr	r3, .L24
 203 0002 B3F90030 		ldrsh	r3, [r3]
 204              	.LVL12:
 205              	.LBB30:
 206              	.LBB31:
1691:.\Core\Include/core_cm4.h ****   }
1692:.\Core\Include/core_cm4.h **** }
1693:.\Core\Include/core_cm4.h **** 
1694:.\Core\Include/core_cm4.h **** 
1695:.\Core\Include/core_cm4.h **** /**
1696:.\Core\Include/core_cm4.h ****   \brief   Get Interrupt Enable status
1697:.\Core\Include/core_cm4.h ****   \details Returns a device specific interrupt enable status from the NVIC interrupt controller.
1698:.\Core\Include/core_cm4.h ****   \param [in]      IRQn  Device specific interrupt number.
1699:.\Core\Include/core_cm4.h ****   \return             0  Interrupt is not enabled.
1700:.\Core\Include/core_cm4.h ****   \return             1  Interrupt is enabled.
1701:.\Core\Include/core_cm4.h ****   \note    IRQn must not be negative.
1702:.\Core\Include/core_cm4.h ****  */
1703:.\Core\Include/core_cm4.h **** __STATIC_INLINE uint32_t __NVIC_GetEnableIRQ(IRQn_Type IRQn)
ARM GAS  C:\Users\Ramon\AppData\Local\Temp\cc2qoQyP.s 			page 40


1704:.\Core\Include/core_cm4.h **** {
1705:.\Core\Include/core_cm4.h ****   if ((int32_t)(IRQn) >= 0)
1706:.\Core\Include/core_cm4.h ****   {
1707:.\Core\Include/core_cm4.h ****     return((uint32_t)(((NVIC->ISER[(((uint32_t)IRQn) >> 5UL)] & (1UL << (((uint32_t)IRQn) & 0x1FUL)
1708:.\Core\Include/core_cm4.h ****   }
1709:.\Core\Include/core_cm4.h ****   else
1710:.\Core\Include/core_cm4.h ****   {
1711:.\Core\Include/core_cm4.h ****     return(0U);
1712:.\Core\Include/core_cm4.h ****   }
1713:.\Core\Include/core_cm4.h **** }
1714:.\Core\Include/core_cm4.h **** 
1715:.\Core\Include/core_cm4.h **** 
1716:.\Core\Include/core_cm4.h **** /**
1717:.\Core\Include/core_cm4.h ****   \brief   Disable Interrupt
1718:.\Core\Include/core_cm4.h ****   \details Disables a device specific interrupt in the NVIC interrupt controller.
1719:.\Core\Include/core_cm4.h ****   \param [in]      IRQn  Device specific interrupt number.
1720:.\Core\Include/core_cm4.h ****   \note    IRQn must not be negative.
1721:.\Core\Include/core_cm4.h ****  */
1722:.\Core\Include/core_cm4.h **** __STATIC_INLINE void __NVIC_DisableIRQ(IRQn_Type IRQn)
1723:.\Core\Include/core_cm4.h **** {
1724:.\Core\Include/core_cm4.h ****   if ((int32_t)(IRQn) >= 0)
 207              		.loc 2 1724 0
 208 0006 002B     		cmp	r3, #0
 209 0008 0DDB     		blt	.L22
1725:.\Core\Include/core_cm4.h ****   {
1726:.\Core\Include/core_cm4.h ****     NVIC->ICER[(((uint32_t)IRQn) >> 5UL)] = (uint32_t)(1UL << (((uint32_t)IRQn) & 0x1FUL));
 210              		.loc 2 1726 0
 211 000a 5A09     		lsrs	r2, r3, #5
 212 000c 03F01F03 		and	r3, r3, #31
 213              	.LVL13:
 214 0010 0121     		movs	r1, #1
 215 0012 01FA03F3 		lsl	r3, r1, r3
 216 0016 2032     		adds	r2, r2, #32
 217 0018 0449     		ldr	r1, .L24+4
 218 001a 41F82230 		str	r3, [r1, r2, lsl #2]
 219              	.LBB32:
 220              	.LBB33:
 221              		.file 3 ".\\Core\\Include/cmsis_gcc.h"
   1:.\Core\Include/cmsis_gcc.h **** /**************************************************************************//**
   2:.\Core\Include/cmsis_gcc.h ****  * @file     cmsis_gcc.h
   3:.\Core\Include/cmsis_gcc.h ****  * @brief    CMSIS compiler GCC header file
   4:.\Core\Include/cmsis_gcc.h ****  * @version  V5.3.0
   5:.\Core\Include/cmsis_gcc.h ****  * @date     26. March 2020
   6:.\Core\Include/cmsis_gcc.h ****  ******************************************************************************/
   7:.\Core\Include/cmsis_gcc.h **** /*
   8:.\Core\Include/cmsis_gcc.h ****  * Copyright (c) 2009-2020 Arm Limited. All rights reserved.
   9:.\Core\Include/cmsis_gcc.h ****  *
  10:.\Core\Include/cmsis_gcc.h ****  * SPDX-License-Identifier: Apache-2.0
  11:.\Core\Include/cmsis_gcc.h ****  *
  12:.\Core\Include/cmsis_gcc.h ****  * Licensed under the Apache License, Version 2.0 (the License); you may
  13:.\Core\Include/cmsis_gcc.h ****  * not use this file except in compliance with the License.
  14:.\Core\Include/cmsis_gcc.h ****  * You may obtain a copy of the License at
  15:.\Core\Include/cmsis_gcc.h ****  *
  16:.\Core\Include/cmsis_gcc.h ****  * www.apache.org/licenses/LICENSE-2.0
  17:.\Core\Include/cmsis_gcc.h ****  *
  18:.\Core\Include/cmsis_gcc.h ****  * Unless required by applicable law or agreed to in writing, software
  19:.\Core\Include/cmsis_gcc.h ****  * distributed under the License is distributed on an AS IS BASIS, WITHOUT
ARM GAS  C:\Users\Ramon\AppData\Local\Temp\cc2qoQyP.s 			page 41


  20:.\Core\Include/cmsis_gcc.h ****  * WARRANTIES OR CONDITIONS OF ANY KIND, either express or implied.
  21:.\Core\Include/cmsis_gcc.h ****  * See the License for the specific language governing permissions and
  22:.\Core\Include/cmsis_gcc.h ****  * limitations under the License.
  23:.\Core\Include/cmsis_gcc.h ****  */
  24:.\Core\Include/cmsis_gcc.h **** 
  25:.\Core\Include/cmsis_gcc.h **** #ifndef __CMSIS_GCC_H
  26:.\Core\Include/cmsis_gcc.h **** #define __CMSIS_GCC_H
  27:.\Core\Include/cmsis_gcc.h **** 
  28:.\Core\Include/cmsis_gcc.h **** /* ignore some GCC warnings */
  29:.\Core\Include/cmsis_gcc.h **** #pragma GCC diagnostic push
  30:.\Core\Include/cmsis_gcc.h **** #pragma GCC diagnostic ignored "-Wsign-conversion"
  31:.\Core\Include/cmsis_gcc.h **** #pragma GCC diagnostic ignored "-Wconversion"
  32:.\Core\Include/cmsis_gcc.h **** #pragma GCC diagnostic ignored "-Wunused-parameter"
  33:.\Core\Include/cmsis_gcc.h **** 
  34:.\Core\Include/cmsis_gcc.h **** /* Fallback for __has_builtin */
  35:.\Core\Include/cmsis_gcc.h **** #ifndef __has_builtin
  36:.\Core\Include/cmsis_gcc.h ****   #define __has_builtin(x) (0)
  37:.\Core\Include/cmsis_gcc.h **** #endif
  38:.\Core\Include/cmsis_gcc.h **** 
  39:.\Core\Include/cmsis_gcc.h **** /* CMSIS compiler specific defines */
  40:.\Core\Include/cmsis_gcc.h **** #ifndef   __ASM
  41:.\Core\Include/cmsis_gcc.h ****   #define __ASM                                  __asm
  42:.\Core\Include/cmsis_gcc.h **** #endif
  43:.\Core\Include/cmsis_gcc.h **** #ifndef   __INLINE
  44:.\Core\Include/cmsis_gcc.h ****   #define __INLINE                               inline
  45:.\Core\Include/cmsis_gcc.h **** #endif
  46:.\Core\Include/cmsis_gcc.h **** #ifndef   __STATIC_INLINE
  47:.\Core\Include/cmsis_gcc.h ****   #define __STATIC_INLINE                        static inline
  48:.\Core\Include/cmsis_gcc.h **** #endif
  49:.\Core\Include/cmsis_gcc.h **** #ifndef   __STATIC_FORCEINLINE                 
  50:.\Core\Include/cmsis_gcc.h ****   #define __STATIC_FORCEINLINE                   __attribute__((always_inline)) static inline
  51:.\Core\Include/cmsis_gcc.h **** #endif                                           
  52:.\Core\Include/cmsis_gcc.h **** #ifndef   __NO_RETURN
  53:.\Core\Include/cmsis_gcc.h ****   #define __NO_RETURN                            __attribute__((__noreturn__))
  54:.\Core\Include/cmsis_gcc.h **** #endif
  55:.\Core\Include/cmsis_gcc.h **** #ifndef   __USED
  56:.\Core\Include/cmsis_gcc.h ****   #define __USED                                 __attribute__((used))
  57:.\Core\Include/cmsis_gcc.h **** #endif
  58:.\Core\Include/cmsis_gcc.h **** #ifndef   __WEAK
  59:.\Core\Include/cmsis_gcc.h ****   #define __WEAK                                 __attribute__((weak))
  60:.\Core\Include/cmsis_gcc.h **** #endif
  61:.\Core\Include/cmsis_gcc.h **** #ifndef   __PACKED
  62:.\Core\Include/cmsis_gcc.h ****   #define __PACKED                               __attribute__((packed, aligned(1)))
  63:.\Core\Include/cmsis_gcc.h **** #endif
  64:.\Core\Include/cmsis_gcc.h **** #ifndef   __PACKED_STRUCT
  65:.\Core\Include/cmsis_gcc.h ****   #define __PACKED_STRUCT                        struct __attribute__((packed, aligned(1)))
  66:.\Core\Include/cmsis_gcc.h **** #endif
  67:.\Core\Include/cmsis_gcc.h **** #ifndef   __PACKED_UNION
  68:.\Core\Include/cmsis_gcc.h ****   #define __PACKED_UNION                         union __attribute__((packed, aligned(1)))
  69:.\Core\Include/cmsis_gcc.h **** #endif
  70:.\Core\Include/cmsis_gcc.h **** #ifndef   __UNALIGNED_UINT32        /* deprecated */
  71:.\Core\Include/cmsis_gcc.h ****   #pragma GCC diagnostic push
  72:.\Core\Include/cmsis_gcc.h ****   #pragma GCC diagnostic ignored "-Wpacked"
  73:.\Core\Include/cmsis_gcc.h ****   #pragma GCC diagnostic ignored "-Wattributes"
  74:.\Core\Include/cmsis_gcc.h ****   struct __attribute__((packed)) T_UINT32 { uint32_t v; };
  75:.\Core\Include/cmsis_gcc.h ****   #pragma GCC diagnostic pop
  76:.\Core\Include/cmsis_gcc.h ****   #define __UNALIGNED_UINT32(x)                  (((struct T_UINT32 *)(x))->v)
ARM GAS  C:\Users\Ramon\AppData\Local\Temp\cc2qoQyP.s 			page 42


  77:.\Core\Include/cmsis_gcc.h **** #endif
  78:.\Core\Include/cmsis_gcc.h **** #ifndef   __UNALIGNED_UINT16_WRITE
  79:.\Core\Include/cmsis_gcc.h ****   #pragma GCC diagnostic push
  80:.\Core\Include/cmsis_gcc.h ****   #pragma GCC diagnostic ignored "-Wpacked"
  81:.\Core\Include/cmsis_gcc.h ****   #pragma GCC diagnostic ignored "-Wattributes"
  82:.\Core\Include/cmsis_gcc.h ****   __PACKED_STRUCT T_UINT16_WRITE { uint16_t v; };
  83:.\Core\Include/cmsis_gcc.h ****   #pragma GCC diagnostic pop
  84:.\Core\Include/cmsis_gcc.h ****   #define __UNALIGNED_UINT16_WRITE(addr, val)    (void)((((struct T_UINT16_WRITE *)(void *)(addr))-
  85:.\Core\Include/cmsis_gcc.h **** #endif
  86:.\Core\Include/cmsis_gcc.h **** #ifndef   __UNALIGNED_UINT16_READ
  87:.\Core\Include/cmsis_gcc.h ****   #pragma GCC diagnostic push
  88:.\Core\Include/cmsis_gcc.h ****   #pragma GCC diagnostic ignored "-Wpacked"
  89:.\Core\Include/cmsis_gcc.h ****   #pragma GCC diagnostic ignored "-Wattributes"
  90:.\Core\Include/cmsis_gcc.h ****   __PACKED_STRUCT T_UINT16_READ { uint16_t v; };
  91:.\Core\Include/cmsis_gcc.h ****   #pragma GCC diagnostic pop
  92:.\Core\Include/cmsis_gcc.h ****   #define __UNALIGNED_UINT16_READ(addr)          (((const struct T_UINT16_READ *)(const void *)(add
  93:.\Core\Include/cmsis_gcc.h **** #endif
  94:.\Core\Include/cmsis_gcc.h **** #ifndef   __UNALIGNED_UINT32_WRITE
  95:.\Core\Include/cmsis_gcc.h ****   #pragma GCC diagnostic push
  96:.\Core\Include/cmsis_gcc.h ****   #pragma GCC diagnostic ignored "-Wpacked"
  97:.\Core\Include/cmsis_gcc.h ****   #pragma GCC diagnostic ignored "-Wattributes"
  98:.\Core\Include/cmsis_gcc.h ****   __PACKED_STRUCT T_UINT32_WRITE { uint32_t v; };
  99:.\Core\Include/cmsis_gcc.h ****   #pragma GCC diagnostic pop
 100:.\Core\Include/cmsis_gcc.h ****   #define __UNALIGNED_UINT32_WRITE(addr, val)    (void)((((struct T_UINT32_WRITE *)(void *)(addr))-
 101:.\Core\Include/cmsis_gcc.h **** #endif
 102:.\Core\Include/cmsis_gcc.h **** #ifndef   __UNALIGNED_UINT32_READ
 103:.\Core\Include/cmsis_gcc.h ****   #pragma GCC diagnostic push
 104:.\Core\Include/cmsis_gcc.h ****   #pragma GCC diagnostic ignored "-Wpacked"
 105:.\Core\Include/cmsis_gcc.h ****   #pragma GCC diagnostic ignored "-Wattributes"
 106:.\Core\Include/cmsis_gcc.h ****   __PACKED_STRUCT T_UINT32_READ { uint32_t v; };
 107:.\Core\Include/cmsis_gcc.h ****   #pragma GCC diagnostic pop
 108:.\Core\Include/cmsis_gcc.h ****   #define __UNALIGNED_UINT32_READ(addr)          (((const struct T_UINT32_READ *)(const void *)(add
 109:.\Core\Include/cmsis_gcc.h **** #endif
 110:.\Core\Include/cmsis_gcc.h **** #ifndef   __ALIGNED
 111:.\Core\Include/cmsis_gcc.h ****   #define __ALIGNED(x)                           __attribute__((aligned(x)))
 112:.\Core\Include/cmsis_gcc.h **** #endif
 113:.\Core\Include/cmsis_gcc.h **** #ifndef   __RESTRICT
 114:.\Core\Include/cmsis_gcc.h ****   #define __RESTRICT                             __restrict
 115:.\Core\Include/cmsis_gcc.h **** #endif
 116:.\Core\Include/cmsis_gcc.h **** #ifndef   __COMPILER_BARRIER
 117:.\Core\Include/cmsis_gcc.h ****   #define __COMPILER_BARRIER()                   __ASM volatile("":::"memory")
 118:.\Core\Include/cmsis_gcc.h **** #endif
 119:.\Core\Include/cmsis_gcc.h **** 
 120:.\Core\Include/cmsis_gcc.h **** /* #########################  Startup and Lowlevel Init  ######################## */
 121:.\Core\Include/cmsis_gcc.h **** 
 122:.\Core\Include/cmsis_gcc.h **** #ifndef __PROGRAM_START
 123:.\Core\Include/cmsis_gcc.h **** 
 124:.\Core\Include/cmsis_gcc.h **** /**
 125:.\Core\Include/cmsis_gcc.h ****   \brief   Initializes data and bss sections
 126:.\Core\Include/cmsis_gcc.h ****   \details This default implementations initialized all data and additional bss
 127:.\Core\Include/cmsis_gcc.h ****            sections relying on .copy.table and .zero.table specified properly
 128:.\Core\Include/cmsis_gcc.h ****            in the used linker script.
 129:.\Core\Include/cmsis_gcc.h ****   
 130:.\Core\Include/cmsis_gcc.h ****  */
 131:.\Core\Include/cmsis_gcc.h **** __STATIC_FORCEINLINE __NO_RETURN void __cmsis_start(void)
 132:.\Core\Include/cmsis_gcc.h **** {
 133:.\Core\Include/cmsis_gcc.h ****   extern void _start(void) __NO_RETURN;
ARM GAS  C:\Users\Ramon\AppData\Local\Temp\cc2qoQyP.s 			page 43


 134:.\Core\Include/cmsis_gcc.h ****   
 135:.\Core\Include/cmsis_gcc.h ****   typedef struct {
 136:.\Core\Include/cmsis_gcc.h ****     uint32_t const* src;
 137:.\Core\Include/cmsis_gcc.h ****     uint32_t* dest;
 138:.\Core\Include/cmsis_gcc.h ****     uint32_t  wlen;
 139:.\Core\Include/cmsis_gcc.h ****   } __copy_table_t;
 140:.\Core\Include/cmsis_gcc.h ****   
 141:.\Core\Include/cmsis_gcc.h ****   typedef struct {
 142:.\Core\Include/cmsis_gcc.h ****     uint32_t* dest;
 143:.\Core\Include/cmsis_gcc.h ****     uint32_t  wlen;
 144:.\Core\Include/cmsis_gcc.h ****   } __zero_table_t;
 145:.\Core\Include/cmsis_gcc.h ****   
 146:.\Core\Include/cmsis_gcc.h ****   extern const __copy_table_t __copy_table_start__;
 147:.\Core\Include/cmsis_gcc.h ****   extern const __copy_table_t __copy_table_end__;
 148:.\Core\Include/cmsis_gcc.h ****   extern const __zero_table_t __zero_table_start__;
 149:.\Core\Include/cmsis_gcc.h ****   extern const __zero_table_t __zero_table_end__;
 150:.\Core\Include/cmsis_gcc.h **** 
 151:.\Core\Include/cmsis_gcc.h ****   for (__copy_table_t const* pTable = &__copy_table_start__; pTable < &__copy_table_end__; ++pTable
 152:.\Core\Include/cmsis_gcc.h ****     for(uint32_t i=0u; i<pTable->wlen; ++i) {
 153:.\Core\Include/cmsis_gcc.h ****       pTable->dest[i] = pTable->src[i];
 154:.\Core\Include/cmsis_gcc.h ****     }
 155:.\Core\Include/cmsis_gcc.h ****   }
 156:.\Core\Include/cmsis_gcc.h ****  
 157:.\Core\Include/cmsis_gcc.h ****   for (__zero_table_t const* pTable = &__zero_table_start__; pTable < &__zero_table_end__; ++pTable
 158:.\Core\Include/cmsis_gcc.h ****     for(uint32_t i=0u; i<pTable->wlen; ++i) {
 159:.\Core\Include/cmsis_gcc.h ****       pTable->dest[i] = 0u;
 160:.\Core\Include/cmsis_gcc.h ****     }
 161:.\Core\Include/cmsis_gcc.h ****   }
 162:.\Core\Include/cmsis_gcc.h ****  
 163:.\Core\Include/cmsis_gcc.h ****   _start();
 164:.\Core\Include/cmsis_gcc.h **** }
 165:.\Core\Include/cmsis_gcc.h ****   
 166:.\Core\Include/cmsis_gcc.h **** #define __PROGRAM_START           __cmsis_start
 167:.\Core\Include/cmsis_gcc.h **** #endif
 168:.\Core\Include/cmsis_gcc.h **** 
 169:.\Core\Include/cmsis_gcc.h **** #ifndef __INITIAL_SP
 170:.\Core\Include/cmsis_gcc.h **** #define __INITIAL_SP              __StackTop
 171:.\Core\Include/cmsis_gcc.h **** #endif
 172:.\Core\Include/cmsis_gcc.h **** 
 173:.\Core\Include/cmsis_gcc.h **** #ifndef __STACK_LIMIT
 174:.\Core\Include/cmsis_gcc.h **** #define __STACK_LIMIT             __StackLimit
 175:.\Core\Include/cmsis_gcc.h **** #endif
 176:.\Core\Include/cmsis_gcc.h **** 
 177:.\Core\Include/cmsis_gcc.h **** #ifndef __VECTOR_TABLE
 178:.\Core\Include/cmsis_gcc.h **** #define __VECTOR_TABLE            __Vectors
 179:.\Core\Include/cmsis_gcc.h **** #endif
 180:.\Core\Include/cmsis_gcc.h **** 
 181:.\Core\Include/cmsis_gcc.h **** #ifndef __VECTOR_TABLE_ATTRIBUTE
 182:.\Core\Include/cmsis_gcc.h **** #define __VECTOR_TABLE_ATTRIBUTE  __attribute__((used, section(".vectors")))
 183:.\Core\Include/cmsis_gcc.h **** #endif
 184:.\Core\Include/cmsis_gcc.h **** 
 185:.\Core\Include/cmsis_gcc.h **** /* ###########################  Core Function Access  ########################### */
 186:.\Core\Include/cmsis_gcc.h **** /** \ingroup  CMSIS_Core_FunctionInterface
 187:.\Core\Include/cmsis_gcc.h ****     \defgroup CMSIS_Core_RegAccFunctions CMSIS Core Register Access Functions
 188:.\Core\Include/cmsis_gcc.h ****   @{
 189:.\Core\Include/cmsis_gcc.h ****  */
 190:.\Core\Include/cmsis_gcc.h **** 
ARM GAS  C:\Users\Ramon\AppData\Local\Temp\cc2qoQyP.s 			page 44


 191:.\Core\Include/cmsis_gcc.h **** /**
 192:.\Core\Include/cmsis_gcc.h ****   \brief   Enable IRQ Interrupts
 193:.\Core\Include/cmsis_gcc.h ****   \details Enables IRQ interrupts by clearing the I-bit in the CPSR.
 194:.\Core\Include/cmsis_gcc.h ****            Can only be executed in Privileged modes.
 195:.\Core\Include/cmsis_gcc.h ****  */
 196:.\Core\Include/cmsis_gcc.h **** __STATIC_FORCEINLINE void __enable_irq(void)
 197:.\Core\Include/cmsis_gcc.h **** {
 198:.\Core\Include/cmsis_gcc.h ****   __ASM volatile ("cpsie i" : : : "memory");
 199:.\Core\Include/cmsis_gcc.h **** }
 200:.\Core\Include/cmsis_gcc.h **** 
 201:.\Core\Include/cmsis_gcc.h **** 
 202:.\Core\Include/cmsis_gcc.h **** /**
 203:.\Core\Include/cmsis_gcc.h ****   \brief   Disable IRQ Interrupts
 204:.\Core\Include/cmsis_gcc.h ****   \details Disables IRQ interrupts by setting the I-bit in the CPSR.
 205:.\Core\Include/cmsis_gcc.h ****            Can only be executed in Privileged modes.
 206:.\Core\Include/cmsis_gcc.h ****  */
 207:.\Core\Include/cmsis_gcc.h **** __STATIC_FORCEINLINE void __disable_irq(void)
 208:.\Core\Include/cmsis_gcc.h **** {
 209:.\Core\Include/cmsis_gcc.h ****   __ASM volatile ("cpsid i" : : : "memory");
 210:.\Core\Include/cmsis_gcc.h **** }
 211:.\Core\Include/cmsis_gcc.h **** 
 212:.\Core\Include/cmsis_gcc.h **** 
 213:.\Core\Include/cmsis_gcc.h **** /**
 214:.\Core\Include/cmsis_gcc.h ****   \brief   Get Control Register
 215:.\Core\Include/cmsis_gcc.h ****   \details Returns the content of the Control Register.
 216:.\Core\Include/cmsis_gcc.h ****   \return               Control Register value
 217:.\Core\Include/cmsis_gcc.h ****  */
 218:.\Core\Include/cmsis_gcc.h **** __STATIC_FORCEINLINE uint32_t __get_CONTROL(void)
 219:.\Core\Include/cmsis_gcc.h **** {
 220:.\Core\Include/cmsis_gcc.h ****   uint32_t result;
 221:.\Core\Include/cmsis_gcc.h **** 
 222:.\Core\Include/cmsis_gcc.h ****   __ASM volatile ("MRS %0, control" : "=r" (result) );
 223:.\Core\Include/cmsis_gcc.h ****   return(result);
 224:.\Core\Include/cmsis_gcc.h **** }
 225:.\Core\Include/cmsis_gcc.h **** 
 226:.\Core\Include/cmsis_gcc.h **** 
 227:.\Core\Include/cmsis_gcc.h **** #if (defined (__ARM_FEATURE_CMSE ) && (__ARM_FEATURE_CMSE == 3))
 228:.\Core\Include/cmsis_gcc.h **** /**
 229:.\Core\Include/cmsis_gcc.h ****   \brief   Get Control Register (non-secure)
 230:.\Core\Include/cmsis_gcc.h ****   \details Returns the content of the non-secure Control Register when in secure mode.
 231:.\Core\Include/cmsis_gcc.h ****   \return               non-secure Control Register value
 232:.\Core\Include/cmsis_gcc.h ****  */
 233:.\Core\Include/cmsis_gcc.h **** __STATIC_FORCEINLINE uint32_t __TZ_get_CONTROL_NS(void)
 234:.\Core\Include/cmsis_gcc.h **** {
 235:.\Core\Include/cmsis_gcc.h ****   uint32_t result;
 236:.\Core\Include/cmsis_gcc.h **** 
 237:.\Core\Include/cmsis_gcc.h ****   __ASM volatile ("MRS %0, control_ns" : "=r" (result) );
 238:.\Core\Include/cmsis_gcc.h ****   return(result);
 239:.\Core\Include/cmsis_gcc.h **** }
 240:.\Core\Include/cmsis_gcc.h **** #endif
 241:.\Core\Include/cmsis_gcc.h **** 
 242:.\Core\Include/cmsis_gcc.h **** 
 243:.\Core\Include/cmsis_gcc.h **** /**
 244:.\Core\Include/cmsis_gcc.h ****   \brief   Set Control Register
 245:.\Core\Include/cmsis_gcc.h ****   \details Writes the given value to the Control Register.
 246:.\Core\Include/cmsis_gcc.h ****   \param [in]    control  Control Register value to set
 247:.\Core\Include/cmsis_gcc.h ****  */
ARM GAS  C:\Users\Ramon\AppData\Local\Temp\cc2qoQyP.s 			page 45


 248:.\Core\Include/cmsis_gcc.h **** __STATIC_FORCEINLINE void __set_CONTROL(uint32_t control)
 249:.\Core\Include/cmsis_gcc.h **** {
 250:.\Core\Include/cmsis_gcc.h ****   __ASM volatile ("MSR control, %0" : : "r" (control) : "memory");
 251:.\Core\Include/cmsis_gcc.h **** }
 252:.\Core\Include/cmsis_gcc.h **** 
 253:.\Core\Include/cmsis_gcc.h **** 
 254:.\Core\Include/cmsis_gcc.h **** #if (defined (__ARM_FEATURE_CMSE ) && (__ARM_FEATURE_CMSE == 3))
 255:.\Core\Include/cmsis_gcc.h **** /**
 256:.\Core\Include/cmsis_gcc.h ****   \brief   Set Control Register (non-secure)
 257:.\Core\Include/cmsis_gcc.h ****   \details Writes the given value to the non-secure Control Register when in secure state.
 258:.\Core\Include/cmsis_gcc.h ****   \param [in]    control  Control Register value to set
 259:.\Core\Include/cmsis_gcc.h ****  */
 260:.\Core\Include/cmsis_gcc.h **** __STATIC_FORCEINLINE void __TZ_set_CONTROL_NS(uint32_t control)
 261:.\Core\Include/cmsis_gcc.h **** {
 262:.\Core\Include/cmsis_gcc.h ****   __ASM volatile ("MSR control_ns, %0" : : "r" (control) : "memory");
 263:.\Core\Include/cmsis_gcc.h **** }
 264:.\Core\Include/cmsis_gcc.h **** #endif
 265:.\Core\Include/cmsis_gcc.h **** 
 266:.\Core\Include/cmsis_gcc.h **** 
 267:.\Core\Include/cmsis_gcc.h **** /**
 268:.\Core\Include/cmsis_gcc.h ****   \brief   Get IPSR Register
 269:.\Core\Include/cmsis_gcc.h ****   \details Returns the content of the IPSR Register.
 270:.\Core\Include/cmsis_gcc.h ****   \return               IPSR Register value
 271:.\Core\Include/cmsis_gcc.h ****  */
 272:.\Core\Include/cmsis_gcc.h **** __STATIC_FORCEINLINE uint32_t __get_IPSR(void)
 273:.\Core\Include/cmsis_gcc.h **** {
 274:.\Core\Include/cmsis_gcc.h ****   uint32_t result;
 275:.\Core\Include/cmsis_gcc.h **** 
 276:.\Core\Include/cmsis_gcc.h ****   __ASM volatile ("MRS %0, ipsr" : "=r" (result) );
 277:.\Core\Include/cmsis_gcc.h ****   return(result);
 278:.\Core\Include/cmsis_gcc.h **** }
 279:.\Core\Include/cmsis_gcc.h **** 
 280:.\Core\Include/cmsis_gcc.h **** 
 281:.\Core\Include/cmsis_gcc.h **** /**
 282:.\Core\Include/cmsis_gcc.h ****   \brief   Get APSR Register
 283:.\Core\Include/cmsis_gcc.h ****   \details Returns the content of the APSR Register.
 284:.\Core\Include/cmsis_gcc.h ****   \return               APSR Register value
 285:.\Core\Include/cmsis_gcc.h ****  */
 286:.\Core\Include/cmsis_gcc.h **** __STATIC_FORCEINLINE uint32_t __get_APSR(void)
 287:.\Core\Include/cmsis_gcc.h **** {
 288:.\Core\Include/cmsis_gcc.h ****   uint32_t result;
 289:.\Core\Include/cmsis_gcc.h **** 
 290:.\Core\Include/cmsis_gcc.h ****   __ASM volatile ("MRS %0, apsr" : "=r" (result) );
 291:.\Core\Include/cmsis_gcc.h ****   return(result);
 292:.\Core\Include/cmsis_gcc.h **** }
 293:.\Core\Include/cmsis_gcc.h **** 
 294:.\Core\Include/cmsis_gcc.h **** 
 295:.\Core\Include/cmsis_gcc.h **** /**
 296:.\Core\Include/cmsis_gcc.h ****   \brief   Get xPSR Register
 297:.\Core\Include/cmsis_gcc.h ****   \details Returns the content of the xPSR Register.
 298:.\Core\Include/cmsis_gcc.h ****   \return               xPSR Register value
 299:.\Core\Include/cmsis_gcc.h ****  */
 300:.\Core\Include/cmsis_gcc.h **** __STATIC_FORCEINLINE uint32_t __get_xPSR(void)
 301:.\Core\Include/cmsis_gcc.h **** {
 302:.\Core\Include/cmsis_gcc.h ****   uint32_t result;
 303:.\Core\Include/cmsis_gcc.h **** 
 304:.\Core\Include/cmsis_gcc.h ****   __ASM volatile ("MRS %0, xpsr" : "=r" (result) );
ARM GAS  C:\Users\Ramon\AppData\Local\Temp\cc2qoQyP.s 			page 46


 305:.\Core\Include/cmsis_gcc.h ****   return(result);
 306:.\Core\Include/cmsis_gcc.h **** }
 307:.\Core\Include/cmsis_gcc.h **** 
 308:.\Core\Include/cmsis_gcc.h **** 
 309:.\Core\Include/cmsis_gcc.h **** /**
 310:.\Core\Include/cmsis_gcc.h ****   \brief   Get Process Stack Pointer
 311:.\Core\Include/cmsis_gcc.h ****   \details Returns the current value of the Process Stack Pointer (PSP).
 312:.\Core\Include/cmsis_gcc.h ****   \return               PSP Register value
 313:.\Core\Include/cmsis_gcc.h ****  */
 314:.\Core\Include/cmsis_gcc.h **** __STATIC_FORCEINLINE uint32_t __get_PSP(void)
 315:.\Core\Include/cmsis_gcc.h **** {
 316:.\Core\Include/cmsis_gcc.h ****   uint32_t result;
 317:.\Core\Include/cmsis_gcc.h **** 
 318:.\Core\Include/cmsis_gcc.h ****   __ASM volatile ("MRS %0, psp"  : "=r" (result) );
 319:.\Core\Include/cmsis_gcc.h ****   return(result);
 320:.\Core\Include/cmsis_gcc.h **** }
 321:.\Core\Include/cmsis_gcc.h **** 
 322:.\Core\Include/cmsis_gcc.h **** 
 323:.\Core\Include/cmsis_gcc.h **** #if (defined (__ARM_FEATURE_CMSE ) && (__ARM_FEATURE_CMSE == 3))
 324:.\Core\Include/cmsis_gcc.h **** /**
 325:.\Core\Include/cmsis_gcc.h ****   \brief   Get Process Stack Pointer (non-secure)
 326:.\Core\Include/cmsis_gcc.h ****   \details Returns the current value of the non-secure Process Stack Pointer (PSP) when in secure s
 327:.\Core\Include/cmsis_gcc.h ****   \return               PSP Register value
 328:.\Core\Include/cmsis_gcc.h ****  */
 329:.\Core\Include/cmsis_gcc.h **** __STATIC_FORCEINLINE uint32_t __TZ_get_PSP_NS(void)
 330:.\Core\Include/cmsis_gcc.h **** {
 331:.\Core\Include/cmsis_gcc.h ****   uint32_t result;
 332:.\Core\Include/cmsis_gcc.h **** 
 333:.\Core\Include/cmsis_gcc.h ****   __ASM volatile ("MRS %0, psp_ns"  : "=r" (result) );
 334:.\Core\Include/cmsis_gcc.h ****   return(result);
 335:.\Core\Include/cmsis_gcc.h **** }
 336:.\Core\Include/cmsis_gcc.h **** #endif
 337:.\Core\Include/cmsis_gcc.h **** 
 338:.\Core\Include/cmsis_gcc.h **** 
 339:.\Core\Include/cmsis_gcc.h **** /**
 340:.\Core\Include/cmsis_gcc.h ****   \brief   Set Process Stack Pointer
 341:.\Core\Include/cmsis_gcc.h ****   \details Assigns the given value to the Process Stack Pointer (PSP).
 342:.\Core\Include/cmsis_gcc.h ****   \param [in]    topOfProcStack  Process Stack Pointer value to set
 343:.\Core\Include/cmsis_gcc.h ****  */
 344:.\Core\Include/cmsis_gcc.h **** __STATIC_FORCEINLINE void __set_PSP(uint32_t topOfProcStack)
 345:.\Core\Include/cmsis_gcc.h **** {
 346:.\Core\Include/cmsis_gcc.h ****   __ASM volatile ("MSR psp, %0" : : "r" (topOfProcStack) : );
 347:.\Core\Include/cmsis_gcc.h **** }
 348:.\Core\Include/cmsis_gcc.h **** 
 349:.\Core\Include/cmsis_gcc.h **** 
 350:.\Core\Include/cmsis_gcc.h **** #if (defined (__ARM_FEATURE_CMSE ) && (__ARM_FEATURE_CMSE == 3))
 351:.\Core\Include/cmsis_gcc.h **** /**
 352:.\Core\Include/cmsis_gcc.h ****   \brief   Set Process Stack Pointer (non-secure)
 353:.\Core\Include/cmsis_gcc.h ****   \details Assigns the given value to the non-secure Process Stack Pointer (PSP) when in secure sta
 354:.\Core\Include/cmsis_gcc.h ****   \param [in]    topOfProcStack  Process Stack Pointer value to set
 355:.\Core\Include/cmsis_gcc.h ****  */
 356:.\Core\Include/cmsis_gcc.h **** __STATIC_FORCEINLINE void __TZ_set_PSP_NS(uint32_t topOfProcStack)
 357:.\Core\Include/cmsis_gcc.h **** {
 358:.\Core\Include/cmsis_gcc.h ****   __ASM volatile ("MSR psp_ns, %0" : : "r" (topOfProcStack) : );
 359:.\Core\Include/cmsis_gcc.h **** }
 360:.\Core\Include/cmsis_gcc.h **** #endif
 361:.\Core\Include/cmsis_gcc.h **** 
ARM GAS  C:\Users\Ramon\AppData\Local\Temp\cc2qoQyP.s 			page 47


 362:.\Core\Include/cmsis_gcc.h **** 
 363:.\Core\Include/cmsis_gcc.h **** /**
 364:.\Core\Include/cmsis_gcc.h ****   \brief   Get Main Stack Pointer
 365:.\Core\Include/cmsis_gcc.h ****   \details Returns the current value of the Main Stack Pointer (MSP).
 366:.\Core\Include/cmsis_gcc.h ****   \return               MSP Register value
 367:.\Core\Include/cmsis_gcc.h ****  */
 368:.\Core\Include/cmsis_gcc.h **** __STATIC_FORCEINLINE uint32_t __get_MSP(void)
 369:.\Core\Include/cmsis_gcc.h **** {
 370:.\Core\Include/cmsis_gcc.h ****   uint32_t result;
 371:.\Core\Include/cmsis_gcc.h **** 
 372:.\Core\Include/cmsis_gcc.h ****   __ASM volatile ("MRS %0, msp" : "=r" (result) );
 373:.\Core\Include/cmsis_gcc.h ****   return(result);
 374:.\Core\Include/cmsis_gcc.h **** }
 375:.\Core\Include/cmsis_gcc.h **** 
 376:.\Core\Include/cmsis_gcc.h **** 
 377:.\Core\Include/cmsis_gcc.h **** #if (defined (__ARM_FEATURE_CMSE ) && (__ARM_FEATURE_CMSE == 3))
 378:.\Core\Include/cmsis_gcc.h **** /**
 379:.\Core\Include/cmsis_gcc.h ****   \brief   Get Main Stack Pointer (non-secure)
 380:.\Core\Include/cmsis_gcc.h ****   \details Returns the current value of the non-secure Main Stack Pointer (MSP) when in secure stat
 381:.\Core\Include/cmsis_gcc.h ****   \return               MSP Register value
 382:.\Core\Include/cmsis_gcc.h ****  */
 383:.\Core\Include/cmsis_gcc.h **** __STATIC_FORCEINLINE uint32_t __TZ_get_MSP_NS(void)
 384:.\Core\Include/cmsis_gcc.h **** {
 385:.\Core\Include/cmsis_gcc.h ****   uint32_t result;
 386:.\Core\Include/cmsis_gcc.h **** 
 387:.\Core\Include/cmsis_gcc.h ****   __ASM volatile ("MRS %0, msp_ns" : "=r" (result) );
 388:.\Core\Include/cmsis_gcc.h ****   return(result);
 389:.\Core\Include/cmsis_gcc.h **** }
 390:.\Core\Include/cmsis_gcc.h **** #endif
 391:.\Core\Include/cmsis_gcc.h **** 
 392:.\Core\Include/cmsis_gcc.h **** 
 393:.\Core\Include/cmsis_gcc.h **** /**
 394:.\Core\Include/cmsis_gcc.h ****   \brief   Set Main Stack Pointer
 395:.\Core\Include/cmsis_gcc.h ****   \details Assigns the given value to the Main Stack Pointer (MSP).
 396:.\Core\Include/cmsis_gcc.h ****   \param [in]    topOfMainStack  Main Stack Pointer value to set
 397:.\Core\Include/cmsis_gcc.h ****  */
 398:.\Core\Include/cmsis_gcc.h **** __STATIC_FORCEINLINE void __set_MSP(uint32_t topOfMainStack)
 399:.\Core\Include/cmsis_gcc.h **** {
 400:.\Core\Include/cmsis_gcc.h ****   __ASM volatile ("MSR msp, %0" : : "r" (topOfMainStack) : );
 401:.\Core\Include/cmsis_gcc.h **** }
 402:.\Core\Include/cmsis_gcc.h **** 
 403:.\Core\Include/cmsis_gcc.h **** 
 404:.\Core\Include/cmsis_gcc.h **** #if (defined (__ARM_FEATURE_CMSE ) && (__ARM_FEATURE_CMSE == 3))
 405:.\Core\Include/cmsis_gcc.h **** /**
 406:.\Core\Include/cmsis_gcc.h ****   \brief   Set Main Stack Pointer (non-secure)
 407:.\Core\Include/cmsis_gcc.h ****   \details Assigns the given value to the non-secure Main Stack Pointer (MSP) when in secure state.
 408:.\Core\Include/cmsis_gcc.h ****   \param [in]    topOfMainStack  Main Stack Pointer value to set
 409:.\Core\Include/cmsis_gcc.h ****  */
 410:.\Core\Include/cmsis_gcc.h **** __STATIC_FORCEINLINE void __TZ_set_MSP_NS(uint32_t topOfMainStack)
 411:.\Core\Include/cmsis_gcc.h **** {
 412:.\Core\Include/cmsis_gcc.h ****   __ASM volatile ("MSR msp_ns, %0" : : "r" (topOfMainStack) : );
 413:.\Core\Include/cmsis_gcc.h **** }
 414:.\Core\Include/cmsis_gcc.h **** #endif
 415:.\Core\Include/cmsis_gcc.h **** 
 416:.\Core\Include/cmsis_gcc.h **** 
 417:.\Core\Include/cmsis_gcc.h **** #if (defined (__ARM_FEATURE_CMSE ) && (__ARM_FEATURE_CMSE == 3))
 418:.\Core\Include/cmsis_gcc.h **** /**
ARM GAS  C:\Users\Ramon\AppData\Local\Temp\cc2qoQyP.s 			page 48


 419:.\Core\Include/cmsis_gcc.h ****   \brief   Get Stack Pointer (non-secure)
 420:.\Core\Include/cmsis_gcc.h ****   \details Returns the current value of the non-secure Stack Pointer (SP) when in secure state.
 421:.\Core\Include/cmsis_gcc.h ****   \return               SP Register value
 422:.\Core\Include/cmsis_gcc.h ****  */
 423:.\Core\Include/cmsis_gcc.h **** __STATIC_FORCEINLINE uint32_t __TZ_get_SP_NS(void)
 424:.\Core\Include/cmsis_gcc.h **** {
 425:.\Core\Include/cmsis_gcc.h ****   uint32_t result;
 426:.\Core\Include/cmsis_gcc.h **** 
 427:.\Core\Include/cmsis_gcc.h ****   __ASM volatile ("MRS %0, sp_ns" : "=r" (result) );
 428:.\Core\Include/cmsis_gcc.h ****   return(result);
 429:.\Core\Include/cmsis_gcc.h **** }
 430:.\Core\Include/cmsis_gcc.h **** 
 431:.\Core\Include/cmsis_gcc.h **** 
 432:.\Core\Include/cmsis_gcc.h **** /**
 433:.\Core\Include/cmsis_gcc.h ****   \brief   Set Stack Pointer (non-secure)
 434:.\Core\Include/cmsis_gcc.h ****   \details Assigns the given value to the non-secure Stack Pointer (SP) when in secure state.
 435:.\Core\Include/cmsis_gcc.h ****   \param [in]    topOfStack  Stack Pointer value to set
 436:.\Core\Include/cmsis_gcc.h ****  */
 437:.\Core\Include/cmsis_gcc.h **** __STATIC_FORCEINLINE void __TZ_set_SP_NS(uint32_t topOfStack)
 438:.\Core\Include/cmsis_gcc.h **** {
 439:.\Core\Include/cmsis_gcc.h ****   __ASM volatile ("MSR sp_ns, %0" : : "r" (topOfStack) : );
 440:.\Core\Include/cmsis_gcc.h **** }
 441:.\Core\Include/cmsis_gcc.h **** #endif
 442:.\Core\Include/cmsis_gcc.h **** 
 443:.\Core\Include/cmsis_gcc.h **** 
 444:.\Core\Include/cmsis_gcc.h **** /**
 445:.\Core\Include/cmsis_gcc.h ****   \brief   Get Priority Mask
 446:.\Core\Include/cmsis_gcc.h ****   \details Returns the current state of the priority mask bit from the Priority Mask Register.
 447:.\Core\Include/cmsis_gcc.h ****   \return               Priority Mask value
 448:.\Core\Include/cmsis_gcc.h ****  */
 449:.\Core\Include/cmsis_gcc.h **** __STATIC_FORCEINLINE uint32_t __get_PRIMASK(void)
 450:.\Core\Include/cmsis_gcc.h **** {
 451:.\Core\Include/cmsis_gcc.h ****   uint32_t result;
 452:.\Core\Include/cmsis_gcc.h **** 
 453:.\Core\Include/cmsis_gcc.h ****   __ASM volatile ("MRS %0, primask" : "=r" (result) );
 454:.\Core\Include/cmsis_gcc.h ****   return(result);
 455:.\Core\Include/cmsis_gcc.h **** }
 456:.\Core\Include/cmsis_gcc.h **** 
 457:.\Core\Include/cmsis_gcc.h **** 
 458:.\Core\Include/cmsis_gcc.h **** #if (defined (__ARM_FEATURE_CMSE ) && (__ARM_FEATURE_CMSE == 3))
 459:.\Core\Include/cmsis_gcc.h **** /**
 460:.\Core\Include/cmsis_gcc.h ****   \brief   Get Priority Mask (non-secure)
 461:.\Core\Include/cmsis_gcc.h ****   \details Returns the current state of the non-secure priority mask bit from the Priority Mask Reg
 462:.\Core\Include/cmsis_gcc.h ****   \return               Priority Mask value
 463:.\Core\Include/cmsis_gcc.h ****  */
 464:.\Core\Include/cmsis_gcc.h **** __STATIC_FORCEINLINE uint32_t __TZ_get_PRIMASK_NS(void)
 465:.\Core\Include/cmsis_gcc.h **** {
 466:.\Core\Include/cmsis_gcc.h ****   uint32_t result;
 467:.\Core\Include/cmsis_gcc.h **** 
 468:.\Core\Include/cmsis_gcc.h ****   __ASM volatile ("MRS %0, primask_ns" : "=r" (result) );
 469:.\Core\Include/cmsis_gcc.h ****   return(result);
 470:.\Core\Include/cmsis_gcc.h **** }
 471:.\Core\Include/cmsis_gcc.h **** #endif
 472:.\Core\Include/cmsis_gcc.h **** 
 473:.\Core\Include/cmsis_gcc.h **** 
 474:.\Core\Include/cmsis_gcc.h **** /**
 475:.\Core\Include/cmsis_gcc.h ****   \brief   Set Priority Mask
ARM GAS  C:\Users\Ramon\AppData\Local\Temp\cc2qoQyP.s 			page 49


 476:.\Core\Include/cmsis_gcc.h ****   \details Assigns the given value to the Priority Mask Register.
 477:.\Core\Include/cmsis_gcc.h ****   \param [in]    priMask  Priority Mask
 478:.\Core\Include/cmsis_gcc.h ****  */
 479:.\Core\Include/cmsis_gcc.h **** __STATIC_FORCEINLINE void __set_PRIMASK(uint32_t priMask)
 480:.\Core\Include/cmsis_gcc.h **** {
 481:.\Core\Include/cmsis_gcc.h ****   __ASM volatile ("MSR primask, %0" : : "r" (priMask) : "memory");
 482:.\Core\Include/cmsis_gcc.h **** }
 483:.\Core\Include/cmsis_gcc.h **** 
 484:.\Core\Include/cmsis_gcc.h **** 
 485:.\Core\Include/cmsis_gcc.h **** #if (defined (__ARM_FEATURE_CMSE ) && (__ARM_FEATURE_CMSE == 3))
 486:.\Core\Include/cmsis_gcc.h **** /**
 487:.\Core\Include/cmsis_gcc.h ****   \brief   Set Priority Mask (non-secure)
 488:.\Core\Include/cmsis_gcc.h ****   \details Assigns the given value to the non-secure Priority Mask Register when in secure state.
 489:.\Core\Include/cmsis_gcc.h ****   \param [in]    priMask  Priority Mask
 490:.\Core\Include/cmsis_gcc.h ****  */
 491:.\Core\Include/cmsis_gcc.h **** __STATIC_FORCEINLINE void __TZ_set_PRIMASK_NS(uint32_t priMask)
 492:.\Core\Include/cmsis_gcc.h **** {
 493:.\Core\Include/cmsis_gcc.h ****   __ASM volatile ("MSR primask_ns, %0" : : "r" (priMask) : "memory");
 494:.\Core\Include/cmsis_gcc.h **** }
 495:.\Core\Include/cmsis_gcc.h **** #endif
 496:.\Core\Include/cmsis_gcc.h **** 
 497:.\Core\Include/cmsis_gcc.h **** 
 498:.\Core\Include/cmsis_gcc.h **** #if ((defined (__ARM_ARCH_7M__      ) && (__ARM_ARCH_7M__      == 1)) || \
 499:.\Core\Include/cmsis_gcc.h ****      (defined (__ARM_ARCH_7EM__     ) && (__ARM_ARCH_7EM__     == 1)) || \
 500:.\Core\Include/cmsis_gcc.h ****      (defined (__ARM_ARCH_8M_MAIN__ ) && (__ARM_ARCH_8M_MAIN__ == 1))    )
 501:.\Core\Include/cmsis_gcc.h **** /**
 502:.\Core\Include/cmsis_gcc.h ****   \brief   Enable FIQ
 503:.\Core\Include/cmsis_gcc.h ****   \details Enables FIQ interrupts by clearing the F-bit in the CPSR.
 504:.\Core\Include/cmsis_gcc.h ****            Can only be executed in Privileged modes.
 505:.\Core\Include/cmsis_gcc.h ****  */
 506:.\Core\Include/cmsis_gcc.h **** __STATIC_FORCEINLINE void __enable_fault_irq(void)
 507:.\Core\Include/cmsis_gcc.h **** {
 508:.\Core\Include/cmsis_gcc.h ****   __ASM volatile ("cpsie f" : : : "memory");
 509:.\Core\Include/cmsis_gcc.h **** }
 510:.\Core\Include/cmsis_gcc.h **** 
 511:.\Core\Include/cmsis_gcc.h **** 
 512:.\Core\Include/cmsis_gcc.h **** /**
 513:.\Core\Include/cmsis_gcc.h ****   \brief   Disable FIQ
 514:.\Core\Include/cmsis_gcc.h ****   \details Disables FIQ interrupts by setting the F-bit in the CPSR.
 515:.\Core\Include/cmsis_gcc.h ****            Can only be executed in Privileged modes.
 516:.\Core\Include/cmsis_gcc.h ****  */
 517:.\Core\Include/cmsis_gcc.h **** __STATIC_FORCEINLINE void __disable_fault_irq(void)
 518:.\Core\Include/cmsis_gcc.h **** {
 519:.\Core\Include/cmsis_gcc.h ****   __ASM volatile ("cpsid f" : : : "memory");
 520:.\Core\Include/cmsis_gcc.h **** }
 521:.\Core\Include/cmsis_gcc.h **** 
 522:.\Core\Include/cmsis_gcc.h **** 
 523:.\Core\Include/cmsis_gcc.h **** /**
 524:.\Core\Include/cmsis_gcc.h ****   \brief   Get Base Priority
 525:.\Core\Include/cmsis_gcc.h ****   \details Returns the current value of the Base Priority register.
 526:.\Core\Include/cmsis_gcc.h ****   \return               Base Priority register value
 527:.\Core\Include/cmsis_gcc.h ****  */
 528:.\Core\Include/cmsis_gcc.h **** __STATIC_FORCEINLINE uint32_t __get_BASEPRI(void)
 529:.\Core\Include/cmsis_gcc.h **** {
 530:.\Core\Include/cmsis_gcc.h ****   uint32_t result;
 531:.\Core\Include/cmsis_gcc.h **** 
 532:.\Core\Include/cmsis_gcc.h ****   __ASM volatile ("MRS %0, basepri" : "=r" (result) );
ARM GAS  C:\Users\Ramon\AppData\Local\Temp\cc2qoQyP.s 			page 50


 533:.\Core\Include/cmsis_gcc.h ****   return(result);
 534:.\Core\Include/cmsis_gcc.h **** }
 535:.\Core\Include/cmsis_gcc.h **** 
 536:.\Core\Include/cmsis_gcc.h **** 
 537:.\Core\Include/cmsis_gcc.h **** #if (defined (__ARM_FEATURE_CMSE ) && (__ARM_FEATURE_CMSE == 3))
 538:.\Core\Include/cmsis_gcc.h **** /**
 539:.\Core\Include/cmsis_gcc.h ****   \brief   Get Base Priority (non-secure)
 540:.\Core\Include/cmsis_gcc.h ****   \details Returns the current value of the non-secure Base Priority register when in secure state.
 541:.\Core\Include/cmsis_gcc.h ****   \return               Base Priority register value
 542:.\Core\Include/cmsis_gcc.h ****  */
 543:.\Core\Include/cmsis_gcc.h **** __STATIC_FORCEINLINE uint32_t __TZ_get_BASEPRI_NS(void)
 544:.\Core\Include/cmsis_gcc.h **** {
 545:.\Core\Include/cmsis_gcc.h ****   uint32_t result;
 546:.\Core\Include/cmsis_gcc.h **** 
 547:.\Core\Include/cmsis_gcc.h ****   __ASM volatile ("MRS %0, basepri_ns" : "=r" (result) );
 548:.\Core\Include/cmsis_gcc.h ****   return(result);
 549:.\Core\Include/cmsis_gcc.h **** }
 550:.\Core\Include/cmsis_gcc.h **** #endif
 551:.\Core\Include/cmsis_gcc.h **** 
 552:.\Core\Include/cmsis_gcc.h **** 
 553:.\Core\Include/cmsis_gcc.h **** /**
 554:.\Core\Include/cmsis_gcc.h ****   \brief   Set Base Priority
 555:.\Core\Include/cmsis_gcc.h ****   \details Assigns the given value to the Base Priority register.
 556:.\Core\Include/cmsis_gcc.h ****   \param [in]    basePri  Base Priority value to set
 557:.\Core\Include/cmsis_gcc.h ****  */
 558:.\Core\Include/cmsis_gcc.h **** __STATIC_FORCEINLINE void __set_BASEPRI(uint32_t basePri)
 559:.\Core\Include/cmsis_gcc.h **** {
 560:.\Core\Include/cmsis_gcc.h ****   __ASM volatile ("MSR basepri, %0" : : "r" (basePri) : "memory");
 561:.\Core\Include/cmsis_gcc.h **** }
 562:.\Core\Include/cmsis_gcc.h **** 
 563:.\Core\Include/cmsis_gcc.h **** 
 564:.\Core\Include/cmsis_gcc.h **** #if (defined (__ARM_FEATURE_CMSE ) && (__ARM_FEATURE_CMSE == 3))
 565:.\Core\Include/cmsis_gcc.h **** /**
 566:.\Core\Include/cmsis_gcc.h ****   \brief   Set Base Priority (non-secure)
 567:.\Core\Include/cmsis_gcc.h ****   \details Assigns the given value to the non-secure Base Priority register when in secure state.
 568:.\Core\Include/cmsis_gcc.h ****   \param [in]    basePri  Base Priority value to set
 569:.\Core\Include/cmsis_gcc.h ****  */
 570:.\Core\Include/cmsis_gcc.h **** __STATIC_FORCEINLINE void __TZ_set_BASEPRI_NS(uint32_t basePri)
 571:.\Core\Include/cmsis_gcc.h **** {
 572:.\Core\Include/cmsis_gcc.h ****   __ASM volatile ("MSR basepri_ns, %0" : : "r" (basePri) : "memory");
 573:.\Core\Include/cmsis_gcc.h **** }
 574:.\Core\Include/cmsis_gcc.h **** #endif
 575:.\Core\Include/cmsis_gcc.h **** 
 576:.\Core\Include/cmsis_gcc.h **** 
 577:.\Core\Include/cmsis_gcc.h **** /**
 578:.\Core\Include/cmsis_gcc.h ****   \brief   Set Base Priority with condition
 579:.\Core\Include/cmsis_gcc.h ****   \details Assigns the given value to the Base Priority register only if BASEPRI masking is disable
 580:.\Core\Include/cmsis_gcc.h ****            or the new value increases the BASEPRI priority level.
 581:.\Core\Include/cmsis_gcc.h ****   \param [in]    basePri  Base Priority value to set
 582:.\Core\Include/cmsis_gcc.h ****  */
 583:.\Core\Include/cmsis_gcc.h **** __STATIC_FORCEINLINE void __set_BASEPRI_MAX(uint32_t basePri)
 584:.\Core\Include/cmsis_gcc.h **** {
 585:.\Core\Include/cmsis_gcc.h ****   __ASM volatile ("MSR basepri_max, %0" : : "r" (basePri) : "memory");
 586:.\Core\Include/cmsis_gcc.h **** }
 587:.\Core\Include/cmsis_gcc.h **** 
 588:.\Core\Include/cmsis_gcc.h **** 
 589:.\Core\Include/cmsis_gcc.h **** /**
ARM GAS  C:\Users\Ramon\AppData\Local\Temp\cc2qoQyP.s 			page 51


 590:.\Core\Include/cmsis_gcc.h ****   \brief   Get Fault Mask
 591:.\Core\Include/cmsis_gcc.h ****   \details Returns the current value of the Fault Mask register.
 592:.\Core\Include/cmsis_gcc.h ****   \return               Fault Mask register value
 593:.\Core\Include/cmsis_gcc.h ****  */
 594:.\Core\Include/cmsis_gcc.h **** __STATIC_FORCEINLINE uint32_t __get_FAULTMASK(void)
 595:.\Core\Include/cmsis_gcc.h **** {
 596:.\Core\Include/cmsis_gcc.h ****   uint32_t result;
 597:.\Core\Include/cmsis_gcc.h **** 
 598:.\Core\Include/cmsis_gcc.h ****   __ASM volatile ("MRS %0, faultmask" : "=r" (result) );
 599:.\Core\Include/cmsis_gcc.h ****   return(result);
 600:.\Core\Include/cmsis_gcc.h **** }
 601:.\Core\Include/cmsis_gcc.h **** 
 602:.\Core\Include/cmsis_gcc.h **** 
 603:.\Core\Include/cmsis_gcc.h **** #if (defined (__ARM_FEATURE_CMSE ) && (__ARM_FEATURE_CMSE == 3))
 604:.\Core\Include/cmsis_gcc.h **** /**
 605:.\Core\Include/cmsis_gcc.h ****   \brief   Get Fault Mask (non-secure)
 606:.\Core\Include/cmsis_gcc.h ****   \details Returns the current value of the non-secure Fault Mask register when in secure state.
 607:.\Core\Include/cmsis_gcc.h ****   \return               Fault Mask register value
 608:.\Core\Include/cmsis_gcc.h ****  */
 609:.\Core\Include/cmsis_gcc.h **** __STATIC_FORCEINLINE uint32_t __TZ_get_FAULTMASK_NS(void)
 610:.\Core\Include/cmsis_gcc.h **** {
 611:.\Core\Include/cmsis_gcc.h ****   uint32_t result;
 612:.\Core\Include/cmsis_gcc.h **** 
 613:.\Core\Include/cmsis_gcc.h ****   __ASM volatile ("MRS %0, faultmask_ns" : "=r" (result) );
 614:.\Core\Include/cmsis_gcc.h ****   return(result);
 615:.\Core\Include/cmsis_gcc.h **** }
 616:.\Core\Include/cmsis_gcc.h **** #endif
 617:.\Core\Include/cmsis_gcc.h **** 
 618:.\Core\Include/cmsis_gcc.h **** 
 619:.\Core\Include/cmsis_gcc.h **** /**
 620:.\Core\Include/cmsis_gcc.h ****   \brief   Set Fault Mask
 621:.\Core\Include/cmsis_gcc.h ****   \details Assigns the given value to the Fault Mask register.
 622:.\Core\Include/cmsis_gcc.h ****   \param [in]    faultMask  Fault Mask value to set
 623:.\Core\Include/cmsis_gcc.h ****  */
 624:.\Core\Include/cmsis_gcc.h **** __STATIC_FORCEINLINE void __set_FAULTMASK(uint32_t faultMask)
 625:.\Core\Include/cmsis_gcc.h **** {
 626:.\Core\Include/cmsis_gcc.h ****   __ASM volatile ("MSR faultmask, %0" : : "r" (faultMask) : "memory");
 627:.\Core\Include/cmsis_gcc.h **** }
 628:.\Core\Include/cmsis_gcc.h **** 
 629:.\Core\Include/cmsis_gcc.h **** 
 630:.\Core\Include/cmsis_gcc.h **** #if (defined (__ARM_FEATURE_CMSE ) && (__ARM_FEATURE_CMSE == 3))
 631:.\Core\Include/cmsis_gcc.h **** /**
 632:.\Core\Include/cmsis_gcc.h ****   \brief   Set Fault Mask (non-secure)
 633:.\Core\Include/cmsis_gcc.h ****   \details Assigns the given value to the non-secure Fault Mask register when in secure state.
 634:.\Core\Include/cmsis_gcc.h ****   \param [in]    faultMask  Fault Mask value to set
 635:.\Core\Include/cmsis_gcc.h ****  */
 636:.\Core\Include/cmsis_gcc.h **** __STATIC_FORCEINLINE void __TZ_set_FAULTMASK_NS(uint32_t faultMask)
 637:.\Core\Include/cmsis_gcc.h **** {
 638:.\Core\Include/cmsis_gcc.h ****   __ASM volatile ("MSR faultmask_ns, %0" : : "r" (faultMask) : "memory");
 639:.\Core\Include/cmsis_gcc.h **** }
 640:.\Core\Include/cmsis_gcc.h **** #endif
 641:.\Core\Include/cmsis_gcc.h **** 
 642:.\Core\Include/cmsis_gcc.h **** #endif /* ((defined (__ARM_ARCH_7M__      ) && (__ARM_ARCH_7M__      == 1)) || \
 643:.\Core\Include/cmsis_gcc.h ****            (defined (__ARM_ARCH_7EM__     ) && (__ARM_ARCH_7EM__     == 1)) || \
 644:.\Core\Include/cmsis_gcc.h ****            (defined (__ARM_ARCH_8M_MAIN__ ) && (__ARM_ARCH_8M_MAIN__ == 1))    ) */
 645:.\Core\Include/cmsis_gcc.h **** 
 646:.\Core\Include/cmsis_gcc.h **** 
ARM GAS  C:\Users\Ramon\AppData\Local\Temp\cc2qoQyP.s 			page 52


 647:.\Core\Include/cmsis_gcc.h **** #if ((defined (__ARM_ARCH_8M_MAIN__ ) && (__ARM_ARCH_8M_MAIN__ == 1)) || \
 648:.\Core\Include/cmsis_gcc.h ****      (defined (__ARM_ARCH_8M_BASE__ ) && (__ARM_ARCH_8M_BASE__ == 1))    )
 649:.\Core\Include/cmsis_gcc.h **** 
 650:.\Core\Include/cmsis_gcc.h **** /**
 651:.\Core\Include/cmsis_gcc.h ****   \brief   Get Process Stack Pointer Limit
 652:.\Core\Include/cmsis_gcc.h ****   Devices without ARMv8-M Main Extensions (i.e. Cortex-M23) lack the non-secure
 653:.\Core\Include/cmsis_gcc.h ****   Stack Pointer Limit register hence zero is returned always in non-secure
 654:.\Core\Include/cmsis_gcc.h ****   mode.
 655:.\Core\Include/cmsis_gcc.h ****   
 656:.\Core\Include/cmsis_gcc.h ****   \details Returns the current value of the Process Stack Pointer Limit (PSPLIM).
 657:.\Core\Include/cmsis_gcc.h ****   \return               PSPLIM Register value
 658:.\Core\Include/cmsis_gcc.h ****  */
 659:.\Core\Include/cmsis_gcc.h **** __STATIC_FORCEINLINE uint32_t __get_PSPLIM(void)
 660:.\Core\Include/cmsis_gcc.h **** {
 661:.\Core\Include/cmsis_gcc.h **** #if (!(defined (__ARM_ARCH_8M_MAIN__ ) && (__ARM_ARCH_8M_MAIN__ == 1)) && \
 662:.\Core\Include/cmsis_gcc.h ****     (!defined (__ARM_FEATURE_CMSE) || (__ARM_FEATURE_CMSE < 3)))
 663:.\Core\Include/cmsis_gcc.h ****     // without main extensions, the non-secure PSPLIM is RAZ/WI
 664:.\Core\Include/cmsis_gcc.h ****   return 0U;
 665:.\Core\Include/cmsis_gcc.h **** #else
 666:.\Core\Include/cmsis_gcc.h ****   uint32_t result;
 667:.\Core\Include/cmsis_gcc.h ****   __ASM volatile ("MRS %0, psplim"  : "=r" (result) );
 668:.\Core\Include/cmsis_gcc.h ****   return result;
 669:.\Core\Include/cmsis_gcc.h **** #endif
 670:.\Core\Include/cmsis_gcc.h **** }
 671:.\Core\Include/cmsis_gcc.h **** 
 672:.\Core\Include/cmsis_gcc.h **** #if (defined (__ARM_FEATURE_CMSE) && (__ARM_FEATURE_CMSE == 3))
 673:.\Core\Include/cmsis_gcc.h **** /**
 674:.\Core\Include/cmsis_gcc.h ****   \brief   Get Process Stack Pointer Limit (non-secure)
 675:.\Core\Include/cmsis_gcc.h ****   Devices without ARMv8-M Main Extensions (i.e. Cortex-M23) lack the non-secure
 676:.\Core\Include/cmsis_gcc.h ****   Stack Pointer Limit register hence zero is returned always.
 677:.\Core\Include/cmsis_gcc.h **** 
 678:.\Core\Include/cmsis_gcc.h ****   \details Returns the current value of the non-secure Process Stack Pointer Limit (PSPLIM) when in
 679:.\Core\Include/cmsis_gcc.h ****   \return               PSPLIM Register value
 680:.\Core\Include/cmsis_gcc.h ****  */
 681:.\Core\Include/cmsis_gcc.h **** __STATIC_FORCEINLINE uint32_t __TZ_get_PSPLIM_NS(void)
 682:.\Core\Include/cmsis_gcc.h **** {
 683:.\Core\Include/cmsis_gcc.h **** #if (!(defined (__ARM_ARCH_8M_MAIN__ ) && (__ARM_ARCH_8M_MAIN__ == 1)))
 684:.\Core\Include/cmsis_gcc.h ****   // without main extensions, the non-secure PSPLIM is RAZ/WI
 685:.\Core\Include/cmsis_gcc.h ****   return 0U;
 686:.\Core\Include/cmsis_gcc.h **** #else
 687:.\Core\Include/cmsis_gcc.h ****   uint32_t result;
 688:.\Core\Include/cmsis_gcc.h ****   __ASM volatile ("MRS %0, psplim_ns"  : "=r" (result) );
 689:.\Core\Include/cmsis_gcc.h ****   return result;
 690:.\Core\Include/cmsis_gcc.h **** #endif
 691:.\Core\Include/cmsis_gcc.h **** }
 692:.\Core\Include/cmsis_gcc.h **** #endif
 693:.\Core\Include/cmsis_gcc.h **** 
 694:.\Core\Include/cmsis_gcc.h **** 
 695:.\Core\Include/cmsis_gcc.h **** /**
 696:.\Core\Include/cmsis_gcc.h ****   \brief   Set Process Stack Pointer Limit
 697:.\Core\Include/cmsis_gcc.h ****   Devices without ARMv8-M Main Extensions (i.e. Cortex-M23) lack the non-secure
 698:.\Core\Include/cmsis_gcc.h ****   Stack Pointer Limit register hence the write is silently ignored in non-secure
 699:.\Core\Include/cmsis_gcc.h ****   mode.
 700:.\Core\Include/cmsis_gcc.h ****   
 701:.\Core\Include/cmsis_gcc.h ****   \details Assigns the given value to the Process Stack Pointer Limit (PSPLIM).
 702:.\Core\Include/cmsis_gcc.h ****   \param [in]    ProcStackPtrLimit  Process Stack Pointer Limit value to set
 703:.\Core\Include/cmsis_gcc.h ****  */
ARM GAS  C:\Users\Ramon\AppData\Local\Temp\cc2qoQyP.s 			page 53


 704:.\Core\Include/cmsis_gcc.h **** __STATIC_FORCEINLINE void __set_PSPLIM(uint32_t ProcStackPtrLimit)
 705:.\Core\Include/cmsis_gcc.h **** {
 706:.\Core\Include/cmsis_gcc.h **** #if (!(defined (__ARM_ARCH_8M_MAIN__ ) && (__ARM_ARCH_8M_MAIN__ == 1)) && \
 707:.\Core\Include/cmsis_gcc.h ****     (!defined (__ARM_FEATURE_CMSE) || (__ARM_FEATURE_CMSE < 3)))
 708:.\Core\Include/cmsis_gcc.h ****   // without main extensions, the non-secure PSPLIM is RAZ/WI
 709:.\Core\Include/cmsis_gcc.h ****   (void)ProcStackPtrLimit;
 710:.\Core\Include/cmsis_gcc.h **** #else
 711:.\Core\Include/cmsis_gcc.h ****   __ASM volatile ("MSR psplim, %0" : : "r" (ProcStackPtrLimit));
 712:.\Core\Include/cmsis_gcc.h **** #endif
 713:.\Core\Include/cmsis_gcc.h **** }
 714:.\Core\Include/cmsis_gcc.h **** 
 715:.\Core\Include/cmsis_gcc.h **** 
 716:.\Core\Include/cmsis_gcc.h **** #if (defined (__ARM_FEATURE_CMSE  ) && (__ARM_FEATURE_CMSE   == 3))
 717:.\Core\Include/cmsis_gcc.h **** /**
 718:.\Core\Include/cmsis_gcc.h ****   \brief   Set Process Stack Pointer (non-secure)
 719:.\Core\Include/cmsis_gcc.h ****   Devices without ARMv8-M Main Extensions (i.e. Cortex-M23) lack the non-secure
 720:.\Core\Include/cmsis_gcc.h ****   Stack Pointer Limit register hence the write is silently ignored.
 721:.\Core\Include/cmsis_gcc.h **** 
 722:.\Core\Include/cmsis_gcc.h ****   \details Assigns the given value to the non-secure Process Stack Pointer Limit (PSPLIM) when in s
 723:.\Core\Include/cmsis_gcc.h ****   \param [in]    ProcStackPtrLimit  Process Stack Pointer Limit value to set
 724:.\Core\Include/cmsis_gcc.h ****  */
 725:.\Core\Include/cmsis_gcc.h **** __STATIC_FORCEINLINE void __TZ_set_PSPLIM_NS(uint32_t ProcStackPtrLimit)
 726:.\Core\Include/cmsis_gcc.h **** {
 727:.\Core\Include/cmsis_gcc.h **** #if (!(defined (__ARM_ARCH_8M_MAIN__ ) && (__ARM_ARCH_8M_MAIN__ == 1)))
 728:.\Core\Include/cmsis_gcc.h ****   // without main extensions, the non-secure PSPLIM is RAZ/WI
 729:.\Core\Include/cmsis_gcc.h ****   (void)ProcStackPtrLimit;
 730:.\Core\Include/cmsis_gcc.h **** #else
 731:.\Core\Include/cmsis_gcc.h ****   __ASM volatile ("MSR psplim_ns, %0\n" : : "r" (ProcStackPtrLimit));
 732:.\Core\Include/cmsis_gcc.h **** #endif
 733:.\Core\Include/cmsis_gcc.h **** }
 734:.\Core\Include/cmsis_gcc.h **** #endif
 735:.\Core\Include/cmsis_gcc.h **** 
 736:.\Core\Include/cmsis_gcc.h **** 
 737:.\Core\Include/cmsis_gcc.h **** /**
 738:.\Core\Include/cmsis_gcc.h ****   \brief   Get Main Stack Pointer Limit
 739:.\Core\Include/cmsis_gcc.h ****   Devices without ARMv8-M Main Extensions (i.e. Cortex-M23) lack the non-secure
 740:.\Core\Include/cmsis_gcc.h ****   Stack Pointer Limit register hence zero is returned always in non-secure
 741:.\Core\Include/cmsis_gcc.h ****   mode.
 742:.\Core\Include/cmsis_gcc.h **** 
 743:.\Core\Include/cmsis_gcc.h ****   \details Returns the current value of the Main Stack Pointer Limit (MSPLIM).
 744:.\Core\Include/cmsis_gcc.h ****   \return               MSPLIM Register value
 745:.\Core\Include/cmsis_gcc.h ****  */
 746:.\Core\Include/cmsis_gcc.h **** __STATIC_FORCEINLINE uint32_t __get_MSPLIM(void)
 747:.\Core\Include/cmsis_gcc.h **** {
 748:.\Core\Include/cmsis_gcc.h **** #if (!(defined (__ARM_ARCH_8M_MAIN__ ) && (__ARM_ARCH_8M_MAIN__ == 1)) && \
 749:.\Core\Include/cmsis_gcc.h ****     (!defined (__ARM_FEATURE_CMSE) || (__ARM_FEATURE_CMSE < 3)))
 750:.\Core\Include/cmsis_gcc.h ****   // without main extensions, the non-secure MSPLIM is RAZ/WI
 751:.\Core\Include/cmsis_gcc.h ****   return 0U;
 752:.\Core\Include/cmsis_gcc.h **** #else
 753:.\Core\Include/cmsis_gcc.h ****   uint32_t result;
 754:.\Core\Include/cmsis_gcc.h ****   __ASM volatile ("MRS %0, msplim" : "=r" (result) );
 755:.\Core\Include/cmsis_gcc.h ****   return result;
 756:.\Core\Include/cmsis_gcc.h **** #endif
 757:.\Core\Include/cmsis_gcc.h **** }
 758:.\Core\Include/cmsis_gcc.h **** 
 759:.\Core\Include/cmsis_gcc.h **** 
 760:.\Core\Include/cmsis_gcc.h **** #if (defined (__ARM_FEATURE_CMSE  ) && (__ARM_FEATURE_CMSE   == 3))
ARM GAS  C:\Users\Ramon\AppData\Local\Temp\cc2qoQyP.s 			page 54


 761:.\Core\Include/cmsis_gcc.h **** /**
 762:.\Core\Include/cmsis_gcc.h ****   \brief   Get Main Stack Pointer Limit (non-secure)
 763:.\Core\Include/cmsis_gcc.h ****   Devices without ARMv8-M Main Extensions (i.e. Cortex-M23) lack the non-secure
 764:.\Core\Include/cmsis_gcc.h ****   Stack Pointer Limit register hence zero is returned always.
 765:.\Core\Include/cmsis_gcc.h **** 
 766:.\Core\Include/cmsis_gcc.h ****   \details Returns the current value of the non-secure Main Stack Pointer Limit(MSPLIM) when in sec
 767:.\Core\Include/cmsis_gcc.h ****   \return               MSPLIM Register value
 768:.\Core\Include/cmsis_gcc.h ****  */
 769:.\Core\Include/cmsis_gcc.h **** __STATIC_FORCEINLINE uint32_t __TZ_get_MSPLIM_NS(void)
 770:.\Core\Include/cmsis_gcc.h **** {
 771:.\Core\Include/cmsis_gcc.h **** #if (!(defined (__ARM_ARCH_8M_MAIN__ ) && (__ARM_ARCH_8M_MAIN__ == 1)))
 772:.\Core\Include/cmsis_gcc.h ****   // without main extensions, the non-secure MSPLIM is RAZ/WI
 773:.\Core\Include/cmsis_gcc.h ****   return 0U;
 774:.\Core\Include/cmsis_gcc.h **** #else
 775:.\Core\Include/cmsis_gcc.h ****   uint32_t result;
 776:.\Core\Include/cmsis_gcc.h ****   __ASM volatile ("MRS %0, msplim_ns" : "=r" (result) );
 777:.\Core\Include/cmsis_gcc.h ****   return result;
 778:.\Core\Include/cmsis_gcc.h **** #endif
 779:.\Core\Include/cmsis_gcc.h **** }
 780:.\Core\Include/cmsis_gcc.h **** #endif
 781:.\Core\Include/cmsis_gcc.h **** 
 782:.\Core\Include/cmsis_gcc.h **** 
 783:.\Core\Include/cmsis_gcc.h **** /**
 784:.\Core\Include/cmsis_gcc.h ****   \brief   Set Main Stack Pointer Limit
 785:.\Core\Include/cmsis_gcc.h ****   Devices without ARMv8-M Main Extensions (i.e. Cortex-M23) lack the non-secure
 786:.\Core\Include/cmsis_gcc.h ****   Stack Pointer Limit register hence the write is silently ignored in non-secure
 787:.\Core\Include/cmsis_gcc.h ****   mode.
 788:.\Core\Include/cmsis_gcc.h **** 
 789:.\Core\Include/cmsis_gcc.h ****   \details Assigns the given value to the Main Stack Pointer Limit (MSPLIM).
 790:.\Core\Include/cmsis_gcc.h ****   \param [in]    MainStackPtrLimit  Main Stack Pointer Limit value to set
 791:.\Core\Include/cmsis_gcc.h ****  */
 792:.\Core\Include/cmsis_gcc.h **** __STATIC_FORCEINLINE void __set_MSPLIM(uint32_t MainStackPtrLimit)
 793:.\Core\Include/cmsis_gcc.h **** {
 794:.\Core\Include/cmsis_gcc.h **** #if (!(defined (__ARM_ARCH_8M_MAIN__ ) && (__ARM_ARCH_8M_MAIN__ == 1)) && \
 795:.\Core\Include/cmsis_gcc.h ****     (!defined (__ARM_FEATURE_CMSE) || (__ARM_FEATURE_CMSE < 3)))
 796:.\Core\Include/cmsis_gcc.h ****   // without main extensions, the non-secure MSPLIM is RAZ/WI
 797:.\Core\Include/cmsis_gcc.h ****   (void)MainStackPtrLimit;
 798:.\Core\Include/cmsis_gcc.h **** #else
 799:.\Core\Include/cmsis_gcc.h ****   __ASM volatile ("MSR msplim, %0" : : "r" (MainStackPtrLimit));
 800:.\Core\Include/cmsis_gcc.h **** #endif
 801:.\Core\Include/cmsis_gcc.h **** }
 802:.\Core\Include/cmsis_gcc.h **** 
 803:.\Core\Include/cmsis_gcc.h **** 
 804:.\Core\Include/cmsis_gcc.h **** #if (defined (__ARM_FEATURE_CMSE  ) && (__ARM_FEATURE_CMSE   == 3))
 805:.\Core\Include/cmsis_gcc.h **** /**
 806:.\Core\Include/cmsis_gcc.h ****   \brief   Set Main Stack Pointer Limit (non-secure)
 807:.\Core\Include/cmsis_gcc.h ****   Devices without ARMv8-M Main Extensions (i.e. Cortex-M23) lack the non-secure
 808:.\Core\Include/cmsis_gcc.h ****   Stack Pointer Limit register hence the write is silently ignored.
 809:.\Core\Include/cmsis_gcc.h **** 
 810:.\Core\Include/cmsis_gcc.h ****   \details Assigns the given value to the non-secure Main Stack Pointer Limit (MSPLIM) when in secu
 811:.\Core\Include/cmsis_gcc.h ****   \param [in]    MainStackPtrLimit  Main Stack Pointer value to set
 812:.\Core\Include/cmsis_gcc.h ****  */
 813:.\Core\Include/cmsis_gcc.h **** __STATIC_FORCEINLINE void __TZ_set_MSPLIM_NS(uint32_t MainStackPtrLimit)
 814:.\Core\Include/cmsis_gcc.h **** {
 815:.\Core\Include/cmsis_gcc.h **** #if (!(defined (__ARM_ARCH_8M_MAIN__ ) && (__ARM_ARCH_8M_MAIN__ == 1)))
 816:.\Core\Include/cmsis_gcc.h ****   // without main extensions, the non-secure MSPLIM is RAZ/WI
 817:.\Core\Include/cmsis_gcc.h ****   (void)MainStackPtrLimit;
ARM GAS  C:\Users\Ramon\AppData\Local\Temp\cc2qoQyP.s 			page 55


 818:.\Core\Include/cmsis_gcc.h **** #else
 819:.\Core\Include/cmsis_gcc.h ****   __ASM volatile ("MSR msplim_ns, %0" : : "r" (MainStackPtrLimit));
 820:.\Core\Include/cmsis_gcc.h **** #endif
 821:.\Core\Include/cmsis_gcc.h **** }
 822:.\Core\Include/cmsis_gcc.h **** #endif
 823:.\Core\Include/cmsis_gcc.h **** 
 824:.\Core\Include/cmsis_gcc.h **** #endif /* ((defined (__ARM_ARCH_8M_MAIN__ ) && (__ARM_ARCH_8M_MAIN__ == 1)) || \
 825:.\Core\Include/cmsis_gcc.h ****            (defined (__ARM_ARCH_8M_BASE__ ) && (__ARM_ARCH_8M_BASE__ == 1))    ) */
 826:.\Core\Include/cmsis_gcc.h **** 
 827:.\Core\Include/cmsis_gcc.h **** 
 828:.\Core\Include/cmsis_gcc.h **** /**
 829:.\Core\Include/cmsis_gcc.h ****   \brief   Get FPSCR
 830:.\Core\Include/cmsis_gcc.h ****   \details Returns the current value of the Floating Point Status/Control register.
 831:.\Core\Include/cmsis_gcc.h ****   \return               Floating Point Status/Control register value
 832:.\Core\Include/cmsis_gcc.h ****  */
 833:.\Core\Include/cmsis_gcc.h **** __STATIC_FORCEINLINE uint32_t __get_FPSCR(void)
 834:.\Core\Include/cmsis_gcc.h **** {
 835:.\Core\Include/cmsis_gcc.h **** #if ((defined (__FPU_PRESENT) && (__FPU_PRESENT == 1U)) && \
 836:.\Core\Include/cmsis_gcc.h ****      (defined (__FPU_USED   ) && (__FPU_USED    == 1U))     )
 837:.\Core\Include/cmsis_gcc.h **** #if __has_builtin(__builtin_arm_get_fpscr) 
 838:.\Core\Include/cmsis_gcc.h **** // Re-enable using built-in when GCC has been fixed
 839:.\Core\Include/cmsis_gcc.h **** // || (__GNUC__ > 7) || (__GNUC__ == 7 && __GNUC_MINOR__ >= 2)
 840:.\Core\Include/cmsis_gcc.h ****   /* see https://gcc.gnu.org/ml/gcc-patches/2017-04/msg00443.html */
 841:.\Core\Include/cmsis_gcc.h ****   return __builtin_arm_get_fpscr();
 842:.\Core\Include/cmsis_gcc.h **** #else
 843:.\Core\Include/cmsis_gcc.h ****   uint32_t result;
 844:.\Core\Include/cmsis_gcc.h **** 
 845:.\Core\Include/cmsis_gcc.h ****   __ASM volatile ("VMRS %0, fpscr" : "=r" (result) );
 846:.\Core\Include/cmsis_gcc.h ****   return(result);
 847:.\Core\Include/cmsis_gcc.h **** #endif
 848:.\Core\Include/cmsis_gcc.h **** #else
